******************************************************************************
               TMS320C6x Linker PC v7.3.5                      
******************************************************************************
>> Linked Fri Aug 24 14:02:45 2012

OUTPUT FILE NAME:   <vlfft_evmc6670l.out>
ENTRY POINT SYMBOL: "_c_int00"  address: 822330e0


MEMORY CONFIGURATION

         name            origin    length      used     unused   attr    fill
----------------------  --------  ---------  --------  --------  ----  --------
  L2SRAM                00800000   00026000  00025000  00001000  RW X
  L2SRAM_1              00826000   0005a000  0005a000  00000000  RW X
  MSMCSRAM              0c000000   00200000  00200000  00000000  RW X
  MSMCSRAM_1            0c200000   00100000  00000000  00100000  RW X
  MSMCSRAM_2            0c300000   00100000  00000000  00100000  RW X
  DDR                   80000000   00200000  00000000  00200000  RW X
  DDR_1                 80200000   04000000  0203abe0  01fc5420  RW X


SEGMENT ALLOCATION MAP

run origin  load origin   length   init length attrs members
----------  ----------- ---------- ----------- ----- -------
00800000    00800000    00008014   00000000    rw-
  00800000    00800000    00008014   00000000    rw- .far.1
00808020    00808020    0000f598   00000000    rw-
  00808020    00808020    0000f598   00000000    rw- .far.2
008175c0    008175c0    00000096   00000000    rw-
  008175c0    008175c0    00000096   00000000    rw- .far.3
00817660    00817660    00004948   00004948    rw-
  00817660    00817660    00004948   00004948    rw- .fardata.1
0081bfb0    0081bfb0    000003e8   000003e8    rw-
  0081bfb0    0081bfb0    000003e8   000003e8    rw- .fardata.2
0081c3a0    0081c3a0    00000078   00000078    rw-
  0081c3a0    0081c3a0    00000078   00000078    rw- .fardata.3
0081c420    0081c420    00000068   00000068    rw-
  0081c420    0081c420    00000068   00000068    rw- .fardata.4
0081c490    0081c490    00000518   00000518    rw-
  0081c490    0081c490    00000518   00000518    rw- .fardata.5
0081c9b0    0081c9b0    00000018   00000018    rw-
  0081c9b0    0081c9b0    00000018   00000018    rw- .fardata.6
0081c9d0    0081c9d0    00000014   00000014    rw-
  0081c9d0    0081c9d0    00000014   00000014    rw- .fardata.7
0081c9f0    0081c9f0    00000098   00000098    rw-
  0081c9f0    0081c9f0    00000098   00000098    rw- .fardata.8
0081ca90    0081ca90    00000008   00000008    rw-
  0081ca90    0081ca90    00000008   00000008    rw- .fardata.9
0081caa0    0081caa0    00000004   00000004    rw-
  0081caa0    0081caa0    00000004   00000004    rw- .fardata.10
0081cab0    0081cab0    00000004   00000004    rw-
  0081cab0    0081cab0    00000004   00000004    rw- .fardata.11
0081cac0    0081cac0    00000004   00000004    rw-
  0081cac0    0081cac0    00000004   00000004    rw- .fardata.12
0081cad0    0081cad0    00000004   00000004    rw-
  0081cad0    0081cad0    00000004   00000004    rw- .fardata.13
0081cae0    0081cae0    00000004   00000004    rw-
  0081cae0    0081cae0    00000004   00000004    rw- .fardata.14
0081caf0    0081caf0    00000004   00000004    rw-
  0081caf0    0081caf0    00000004   00000004    rw- .fardata.15
0081cb00    0081cb00    00000004   00000004    rw-
  0081cb00    0081cb00    00000004   00000004    rw- .fardata.16
0081cb10    0081cb10    00004aae   00004aae    r--
  0081cb10    0081cb10    00004aae   00004aae    r-- .const
008215c0    008215c0    00001120   00000000    rw-
  008215c0    008215c0    00001000   00000000    rw- .stack
  008225c0    008225c0    00000120   00000000    rw- .cio
008226e0    008226e0    000000d0   000000d0    r--
  008226e0    008226e0    000000d0   000000d0    r-- .switch
008227b0    008227b0    00000010   00000000    rw-
  008227b0    008227b0    00000010   00000000    rw- .bss
008227c0    008227c0    00000032   00000032    rw-
  008227c0    008227c0    00000032   00000032    rw- .neardata
008227f4    008227f4    00000008   00000008    r--
  008227f4    008227f4    00000008   00000008    r-- .rodata
008227fc    008227fc    000028c4   000028c4    r--
  008227fc    008227fc    000028c4   000028c4    r-- .cinit
00826000    00826000    0005a000   00000000    rw-
  00826000    00826000    0005a000   00000000    rw- .internalMEM
80200000    80200000    02000000   00000000    rw-
  80200000    80200000    02000000   00000000    rw- .externalMEM
82200000    82200000    0003a9e0   0003a9e0    r-x
  82200000    82200000    0003a9e0   0003a9e0    r-x .text
8223ac00    8223ac00    00000200   00000200    r-x
  8223ac00    8223ac00    00000200   00000200    r-x .vecs


SECTION ALLOCATION MAP

 output                                  attributes/
section   page    origin      length       input sections
--------  ----  ----------  ----------   ----------------
.init_array 
*          0    00800000    00000000     UNINITIALIZED

xdc.meta   0    00800000    00000148     COPY SECTION
                  00800000    00000148     vlfft_evmc6670l_pe66.oe66 (xdc.meta)

.far.1     0    00800000    00008014     UNINITIALIZED
                  00800000    00008014     vlfft_evmc6670l_pe66.oe66 (.far)

.far.2     0    00808020    0000f598     UNINITIALIZED
                  00808020    000079f0     edma3_lld_drv.ae66 : edma3_drv_init.oe66 (.far)
                  0080fa10    00004970     edma3_lld_rm.ae66 : edma3resmgr.oe66 (.far)
                  00814380    00002820                       : edma3_rm_gbl_data.oe66 (.far)
                  00816ba0    00000800     vlfft_evmc6670l_pe66.oe66 (.far:taskStackSection)
                  008173a0    00000140     rts6600_elf.lib : defs.obj (.far)
                  008174e0    000000d8                     : trgdrv.obj (.far)

.far.3     0    008175c0    00000096     UNINITIALIZED
                  008175c0    00000096     vlfftApps.obj (.far)

.fardata.1 
*          0    00817660    00004948     
                  00817660    00000fc0     edma3_lld_rm.ae66 : edma3_c6678_cfg.oe66 (.fardata:defInstInitConfig)
                  00818620    00000fc0     edma3_lld_drv_sample.ae66 : sample_c6678_cfg.oe66 (.fardata:sampleInstInitConfig)
                  008195e0    00000888     edma3_lld_rm.ae66 : edma3_c6678_cfg.oe66 (.fardata:edma3GblCfgParams)
                  00819e68    00000008     rts6600_elf.lib : _lock.obj (.fardata)
                  00819e70    00000888     edma3_lld_drv_sample.ae66 : sample_c6678_cfg.oe66 (.fardata:sampleEdma3GblCfgParams)
                  0081a6f8    00000004     rts6600_elf.lib : defs.obj (.fardata)
                  0081a6fc    00000004                     : dtor_list.obj (.fardata)
                  0081a700    00000800     vlfft_evmc6670l_pe66.oe66 (.fardata:ti_sdo_ipc_GateMP_Module_State_0_remoteCustom1Gates__A)
                  0081af00    0000072c     vlfft_evmc6670l_pe66.oe66 (.fardata)
                  0081b62c    00000004     --HOLE--
                  0081b630    00000680     vlfft_evmc6670l_pe66.oe66 (.fardata:ti_sysbios_family_c66_tci66xx_CpIntc_Module_State_0_dispatchTab__A)
                  0081bcb0    000001e0     rts6600_elf.lib : defs.obj (.fardata:_ftable)
                  0081be90    00000118     vlfft_evmc6670l_pe66.oe66 (.fardata:ti_sdo_utils_NameServer_Object__table__V)

.fardata.2 
*          0    0081bfb0    000003e8     
                  0081bfb0    000000c0     vlfft_evmc6670l_pe66.oe66 (.fardata:ti_sysbios_timers_timer64_Timer_Module_State_0_device__A)
                  0081c070    000000a0     rts6600_elf.lib : lowlev.obj (.fardata:_stream)
                  0081c110    00000090     vlfft_evmc6670l_pe66.oe66 (.fardata:ti_sdo_ipc_SharedRegion_Module_State_0_regions__A)
                  0081c1a0    00000080     vlfft_evmc6670l_pe66.oe66 (.fardata:ti_sdo_ipc_GateMP_Module_State_0_remoteSystemGates__A)
                  0081c220    00000080     vlfft_evmc6670l_pe66.oe66 (.fardata:ti_sysbios_knl_Swi_Module_State_0_readyQ__A)
                  0081c2a0    00000080     vlfft_evmc6670l_pe66.oe66 (.fardata:ti_sysbios_knl_Task_Module_State_0_readyQ__A)
                  0081c320    00000078     rts6600_elf.lib : lowlev.obj (.fardata:_device)

.fardata.3 
*          0    0081c3a0    00000078     
                  0081c3a0    00000078     vlfft_evmc6670l_pe66.oe66 (.fardata:ti_sysbios_family_c64p_Hwi_Object__table__V)

.fardata.4 
*          0    0081c420    00000068     
                  0081c420    00000068     vlfft_evmc6670l_pe66.oe66 (.fardata:ti_sysbios_family_c66_tci66xx_CpIntc_Module_State_0_hostIntToSysInt__A)

.fardata.5 
*          0    0081c490    00000518     
                  0081c490    00000060     edma3_lld_drv_sample.ae66 : sample_c6678_cfg.oe66 (.fardata:ccXferCompInt)
                  0081c4f0    00000060                               : sample_c6678_int_reg.oe66 (.fardata:ccXferHostInt)
                  0081c550    00000060                               : sample_c6678_int_reg.oe66 (.fardata:edma3ErrHostInt)
                  0081c5b0    00000060                               : sample_c6678_cfg.oe66 (.fardata:tcErrorInt)
                  0081c610    00000050     vlfft_evmc6670l_pe66.oe66 (.fardata:ti_sdo_ipc_Ipc_Module_State_0_procEntry__A)
                  0081c660    0000004c     vlfft_evmc6670l_pe66.oe66 (.fardata:ti_sysbios_timers_timer64_Timer_Object__table__V)
                  0081c6ac    00000004     --HOLE--
                  0081c6b0    00000044     vlfft_evmc6670l_pe66.oe66 (.fardata:ti_sysbios_knl_Task_Object__table__V)
                  0081c6f4    0000000c     rts6600_elf.lib : exit.obj (.fardata)
                  0081c700    00000040                     : cos.obj (.fardata:R$1)
                  0081c740    00000040                     : sin.obj (.fardata:R$1)
                  0081c780    00000040     vlfft_evmc6670l_pe66.oe66 (.fardata:ti_sysbios_gates_GateMutex_Object__table__V)
                  0081c7c0    00000040     vlfft_evmc6670l_pe66.oe66 (.fardata:ti_sysbios_timers_timer64_Timer_Module_State_0_gctrl__A)
                  0081c800    00000040     vlfft_evmc6670l_pe66.oe66 (.fardata:ti_sysbios_timers_timer64_Timer_Module_State_0_handles__A)
                  0081c840    00000040     vlfft_evmc6670l_pe66.oe66 (.fardata:ti_sysbios_timers_timer64_Timer_Module_State_0_intFreqs__A)
                  0081c880    00000030     vlfft_evmc6670l_pe66.oe66 (.fardata:ti_sysbios_knl_Swi_Object__table__V)
                  0081c8b0    00000020     edma3_lld_drv_sample.ae66 : sample_c6678_cfg.oe66 (.fardata:gblCfgReqdArray)
                  0081c8d0    00000020                               : sample_c6678_int_reg.oe66 (.fardata:ptrEdma3TcIsrHandler)
                  0081c8f0    00000020     vlfft_evmc6670l_pe66.oe66 (.fardata:ti_sdo_ipc_MessageQ_Module_State_0_heaps__A)
                  0081c910    00000020     vlfft_evmc6670l_pe66.oe66 (.fardata:ti_sdo_ipc_MessageQ_Module_State_0_transports__A)
                  0081c930    00000020     vlfft_evmc6670l_pe66.oe66 (.fardata:ti_sdo_ipc_family_c647x_Interrupt_Module_State_0_fxnTable__A)
                  0081c950    00000020     vlfft_evmc6670l_pe66.oe66 (.fardata:xdc_runtime_System_Module_State_0_atexitHandlers__A)
                  0081c970    0000001c     vlfft_evmc6670l_pe66.oe66 (.fardata:ti_sysbios_family_c66_tci66xx_CpIntc_Module_State_0_initSIER__A)
                  0081c98c    00000004     --HOLE--
                  0081c990    00000018     edma3_lld_rm.ae66 : edma3resmgr.oe66 (.fardata:allocatedTCCs)

.fardata.6 
*          0    0081c9b0    00000018     
                  0081c9b0    00000018     vlfft_evmc6670l_pe66.oe66 (.fardata:ti_sysbios_gates_GateMutexPri_Object__table__V)

.fardata.7 
*          0    0081c9d0    00000014     
                  0081c9d0    00000014     vlfft_evmc6670l_pe66.oe66 (.fardata:ti_sysbios_heaps_HeapMem_Object__table__V)

.fardata.8 
*          0    0081c9f0    00000098     
                  0081c9f0    00000010     vlfft_evmc6670l_pe66.oe66 (.fardata:ti_sdo_ipc_Notify_Module_State_0_notifyHandles__A)
                  0081ca00    00000010     vlfft_evmc6670l_pe66.oe66 (.fardata:ti_sdo_ipc_transports_TransportShmNotifySetup_Module_State_0_handles__A)
                  0081ca10    00000010     vlfft_evmc6670l_pe66.oe66 (.fardata:ti_sysbios_gates_GateAll_Object__table__V)
                  0081ca20    0000000c     edma3_lld_drv_sample.ae66 : sample_c6678_cfg.oe66 (.fardata:ccErrorInt)
                  0081ca2c    00000004     --HOLE--
                  0081ca30    0000000c     edma3_lld_rm.ae66 : edma3resmgr.oe66 (.fardata:masterExists)
                  0081ca3c    00000004     --HOLE--
                  0081ca40    0000000c     edma3_lld_drv_sample.ae66 : sample_c6678_cfg.oe66 (.fardata:numEdma3Tc)
                  0081ca4c    00000004     --HOLE--
                  0081ca50    0000000c                               : sample_c6678_cfg.oe66 (.fardata:semHandle)
                  0081ca5c    00000004     --HOLE--
                  0081ca60    0000000c     vlfft_evmc6670l_pe66.oe66 (.fardata:ti_sysbios_family_c66_tci66xx_CpIntc_Module_State_0_controller__A)
                  0081ca6c    00000004     --HOLE--
                  0081ca70    0000000c     vlfft_evmc6670l_pe66.oe66 (.fardata:ti_sysbios_gates_GateSwi_Object__table__V)
                  0081ca7c    00000004     --HOLE--
                  0081ca80    00000008     vlfft_evmc6670l_pe66.oe66 (.fardata:ti_sysbios_hal_Hwi_Object__table__V)

.fardata.9 
*          0    0081ca90    00000008     
                  0081ca90    00000008     vlfft_evmc6670l_pe66.oe66 (.fardata:ti_sysbios_hal_Timer_Object__table__V)

.fardata.10 
*          0    0081caa0    00000004     
                  0081caa0    00000004     vlfft_evmc6670l_pe66.oe66 (.fardata:ti_sdo_ipc_GateMP_Module_State_0_remoteCustom2Gates__A)

.fardata.11 
*          0    0081cab0    00000004     
                  0081cab0    00000004     vlfft_evmc6670l_pe66.oe66 (.fardata:ti_sdo_ipc_Notify_Module_State_0_notifyHandles_0__A)

.fardata.12 
*          0    0081cac0    00000004     
                  0081cac0    00000004     vlfft_evmc6670l_pe66.oe66 (.fardata:ti_sdo_ipc_Notify_Module_State_0_notifyHandles_1__A)

.fardata.13 
*          0    0081cad0    00000004     
                  0081cad0    00000004     vlfft_evmc6670l_pe66.oe66 (.fardata:ti_sdo_ipc_Notify_Module_State_0_notifyHandles_2__A)

.fardata.14 
*          0    0081cae0    00000004     
                  0081cae0    00000004     vlfft_evmc6670l_pe66.oe66 (.fardata:ti_sdo_ipc_Notify_Module_State_0_notifyHandles_3__A)

.fardata.15 
*          0    0081caf0    00000004     
                  0081caf0    00000004     vlfft_evmc6670l_pe66.oe66 (.fardata:ti_sysbios_gates_GateHwi_Object__table__V)

.fardata.16 
*          0    0081cb00    00000004     
                  0081cb00    00000004     vlfft_evmc6670l_pe66.oe66 (.fardata:xdc_runtime_GateNull_Object__table__V)

.const     0    0081cb10    00004aae     
                  0081cb10    000025b4     vlfft_evmc6670l_pe66.oe66 (.const:xdc_runtime_Text_charTab__A)
                  0081f0c4    0000042c     sysbios.lib : BIOS.obj (.const:.string)
                  0081f4f0    00000400     vlfft_evmc6670l_pe66.oe66 (.const:ti_sysbios_family_c66_Cache_marvalues__C)
                  0081f8f0    000001ab     vlfftApps.obj (.const:.string)
                  0081fa9b    00000001     --HOLE-- [fill = 0]
                  0081fa9c    00000004     ti.targets.rts6000.ae66 : Assert.oe66 (.const:.string)
                  0081faa0    00000180     vlfft_evmc6670l_pe66.oe66 (.const:xdc_runtime_Text_nodeTab__A)
                  0081fc20    00000101     rts6600_elf.lib : ctype.obj (.const:_ctypes_)
                  0081fd21    000000fd     edma3_lld_rm.ae66 : edma3resmgr.oe66 (.const:.string)
                  0081fe1e    00000002     --HOLE-- [fill = 0]
                  0081fe20    000000d0     vlfft_evmc6670l_pe66.oe66 (.const:ti_sysbios_family_c66_tci66xx_CpIntc_sysIntToHostInt__A)
                  0081fef0    000000b0     vlfft_evmc6670l_pe66.oe66 (.const:.string)
                  0081ffa0    00000081     edma3_lld_drv.ae66 : edma3_drv_init.oe66 (.const:.string)
                  00820021    00000068                        : edma3_drv_basic.oe66 (.const:.string)
                  00820089    00000003     rts6600_elf.lib : assert.obj (.const:.string)
                  0082008c    00000004     vlfft_evmc6670l_pe66.oe66 (.const:ti_sdo_ipc_GateMP_A_invalidClose__C)
                  00820090    00000068     vlfft_evmc6670l_pe66.oe66 (.const:ti_sysbios_family_c66_tci66xx_CpIntc_hostIntToEventId__A)
                  008200f8    00000066     STMHelper.obj (.const:.string)
                  0082015e    0000005a     messgQUtil.obj (.const:.string)
                  008201b8    00000059     vlfftUtil.obj (.const:.string)
                  00820211    00000003     --HOLE-- [fill = 0]
                  00820214    00000058     ti.targets.rts6000.ae66 : Error.oe66 (.const:.string)
                  0082026c    00000004     vlfft_evmc6670l_pe66.oe66 (.const:ti_sdo_ipc_GateMP_A_invalidDelete__C)
                  00820270    00000048     vlfft_evmc6670l_pe66.oe66 (.const:xdc_runtime_Startup_sfxnTab__A)
                  008202b8    00000040     ti.targets.rts6000.ae66 : Text.oe66 (.const:.string)
                  008202f8    0000003e     vlfftEdmaConfig.obj (.const:.string)
                  00820336    00000002     --HOLE-- [fill = 0]
                  00820338    00000038     vlfft_evmc6670l_pe66.oe66 (.const:ti_sdo_ipc_heaps_HeapBufMP_Object__PARAMS__C)
                  00820370    00000038     vlfft_evmc6670l_pe66.oe66 (.const:ti_sdo_ipc_notifyDrivers_NotifyDriverCirc_Module__FXNS__C)
                  008203a8    00000038     vlfft_evmc6670l_pe66.oe66 (.const:ti_sysbios_knl_Task_Object__PARAMS__C)
                  008203e0    00000034     vlfft_evmc6670l_pe66.oe66 (.const:ti_sdo_ipc_GateMP_Object__PARAMS__C)
                  00820414    00000034     vlfft_evmc6670l_pe66.oe66 (.const:ti_sdo_ipc_notifyDrivers_NotifyDriverCirc_Object__PARAMS__C)
                  00820448    00000030     vlfft_evmc6670l_pe66.oe66 (.const:ti_sdo_ipc_heaps_HeapMemMP_Object__PARAMS__C)
                  00820478    00000030     vlfft_evmc6670l_pe66.oe66 (.const:ti_sysbios_family_c64p_Hwi_Object__PARAMS__C)
                  008204a8    0000002c     ti.targets.rts6000.ae66 : Startup.oe66 (.const:.string)
                  008204d4    0000002c     vlfft_evmc6670l_pe66.oe66 (.const:ti_sdo_ipc_ListMP_Object__PARAMS__C)
                  00820500    0000002c     vlfft_evmc6670l_pe66.oe66 (.const:ti_sdo_ipc_gates_GateHWSem_Module__FXNS__C)
                  0082052c    0000002c     vlfft_evmc6670l_pe66.oe66 (.const:ti_sdo_ipc_gates_GateMPSupportNull_Module__FXNS__C)
                  00820558    0000002c     vlfft_evmc6670l_pe66.oe66 (.const:ti_sdo_ipc_gates_GatePeterson_Module__FXNS__C)
                  00820584    00000028     vlfft_evmc6670l_pe66.oe66 (.const:ti_sdo_ipc_heaps_HeapBufMP_Module__FXNS__C)
                  008205ac    00000028     vlfft_evmc6670l_pe66.oe66 (.const:ti_sdo_ipc_heaps_HeapMemMP_Module__FXNS__C)
                  008205d4    00000028     vlfft_evmc6670l_pe66.oe66 (.const:ti_sdo_ipc_nsremote_NameServerRemoteNotify_Module__FXNS__C)
                  008205fc    00000028     vlfft_evmc6670l_pe66.oe66 (.const:ti_sdo_ipc_transports_TransportShmNotify_Module__FXNS__C)
                  00820624    00000028     vlfft_evmc6670l_pe66.oe66 (.const:ti_sysbios_heaps_HeapMem_Module__FXNS__C)
                  0082064c    00000028     vlfft_evmc6670l_pe66.oe66 (.const:ti_sysbios_knl_Swi_Object__PARAMS__C)
                  00820674    00000024     vlfft_evmc6670l_pe66.oe66 (.const:ti_sdo_ipc_gates_GateHWSem_Object__PARAMS__C)
                  00820698    00000024     vlfft_evmc6670l_pe66.oe66 (.const:ti_sdo_ipc_gates_GateMPSupportNull_Object__PARAMS__C)
                  008206bc    00000024     vlfft_evmc6670l_pe66.oe66 (.const:ti_sdo_ipc_gates_GatePeterson_Object__PARAMS__C)
                  008206e0    00000024     vlfft_evmc6670l_pe66.oe66 (.const:ti_sysbios_gates_GateAll_Module__FXNS__C)
                  00820704    00000024     vlfft_evmc6670l_pe66.oe66 (.const:ti_sysbios_gates_GateHwi_Module__FXNS__C)
                  00820728    00000024     vlfft_evmc6670l_pe66.oe66 (.const:ti_sysbios_gates_GateMutexPri_Module__FXNS__C)
                  0082074c    00000024     vlfft_evmc6670l_pe66.oe66 (.const:ti_sysbios_gates_GateMutex_Module__FXNS__C)
                  00820770    00000024     vlfft_evmc6670l_pe66.oe66 (.const:ti_sysbios_gates_GateSwi_Module__FXNS__C)
                  00820794    00000024     vlfft_evmc6670l_pe66.oe66 (.const:ti_sysbios_knl_Clock_Object__PARAMS__C)
                  008207b8    00000024     vlfft_evmc6670l_pe66.oe66 (.const:ti_sysbios_knl_Semaphore_Object__PARAMS__C)
                  008207dc    00000024     vlfft_evmc6670l_pe66.oe66 (.const:ti_sysbios_syncs_SyncSem_Module__FXNS__C)
                  00820800    00000024     vlfft_evmc6670l_pe66.oe66 (.const:xdc_runtime_GateNull_Module__FXNS__C)
                  00820824    0000000c     vlfft_evmc6670l_pe66.oe66 (.const:ti_sysbios_family_c66_Cache_initSize__C)
                  00820830    00000024     vlfft_evmc6670l_pe66.oe66 (.const:xdc_runtime_Startup_sfxnRts__A)
                  00820854    00000024     vlfft_evmc6670l_pe66.oe66 (.const:xdc_runtime_knl_GateThread_Module__FXNS__C)
                  00820878    00000023     rts6600_elf.lib : _printfi.obj (.const:.string)
                  0082089b    00000001     --HOLE-- [fill = 0]
                  0082089c    00000020     ti.targets.rts6000.ae66 : Core-mem.oe66 (.const:.string)
                  008208bc    00000020     vlfft_evmc6670l_pe66.oe66 (.const:ti_sdo_ipc_GateMP_Object__DESC__C)
                  008208dc    00000020     vlfft_evmc6670l_pe66.oe66 (.const:ti_sdo_ipc_ListMP_Object__DESC__C)
                  008208fc    00000020     vlfft_evmc6670l_pe66.oe66 (.const:ti_sdo_ipc_MessageQ_Object__DESC__C)
                  0082091c    00000020     vlfft_evmc6670l_pe66.oe66 (.const:ti_sdo_ipc_Notify_Object__DESC__C)
                  0082093c    00000020     vlfft_evmc6670l_pe66.oe66 (.const:ti_sdo_ipc_gates_GateHWSem_Object__DESC__C)
                  0082095c    00000020     vlfft_evmc6670l_pe66.oe66 (.const:ti_sdo_ipc_gates_GateMPSupportNull_Object__DESC__C)
                  0082097c    00000020     vlfft_evmc6670l_pe66.oe66 (.const:ti_sdo_ipc_gates_GatePeterson_Object__DESC__C)
                  0082099c    00000020     vlfft_evmc6670l_pe66.oe66 (.const:ti_sdo_ipc_heaps_HeapBufMP_Object__DESC__C)
                  008209bc    00000020     vlfft_evmc6670l_pe66.oe66 (.const:ti_sdo_ipc_heaps_HeapMemMP_Object__DESC__C)
                  008209dc    00000020     vlfft_evmc6670l_pe66.oe66 (.const:ti_sdo_ipc_notifyDrivers_NotifyDriverCirc_Object__DESC__C)
                  008209fc    00000020     vlfft_evmc6670l_pe66.oe66 (.const:ti_sdo_ipc_nsremote_NameServerRemoteNotify_Object__DESC__C)
                  00820a1c    00000020     vlfft_evmc6670l_pe66.oe66 (.const:ti_sdo_ipc_nsremote_NameServerRemoteNotify_Object__PARAMS__C)
                  00820a3c    00000020     vlfft_evmc6670l_pe66.oe66 (.const:ti_sdo_ipc_transports_TransportShmNotify_Object__DESC__C)
                  00820a5c    00000020     vlfft_evmc6670l_pe66.oe66 (.const:ti_sdo_utils_List_Object__DESC__C)
                  00820a7c    00000020     vlfft_evmc6670l_pe66.oe66 (.const:ti_sysbios_family_c64p_Hwi_Object__DESC__C)
                  00820a9c    00000020     vlfft_evmc6670l_pe66.oe66 (.const:ti_sysbios_gates_GateAll_Object__DESC__C)
                  00820abc    00000020     vlfft_evmc6670l_pe66.oe66 (.const:ti_sysbios_gates_GateHwi_Object__DESC__C)
                  00820adc    00000020     vlfft_evmc6670l_pe66.oe66 (.const:ti_sysbios_gates_GateMutexPri_Object__DESC__C)
                  00820afc    00000020     vlfft_evmc6670l_pe66.oe66 (.const:ti_sysbios_gates_GateMutex_Object__DESC__C)
                  00820b1c    00000020     vlfft_evmc6670l_pe66.oe66 (.const:ti_sysbios_gates_GateSwi_Object__DESC__C)
                  00820b3c    00000020     vlfft_evmc6670l_pe66.oe66 (.const:ti_sysbios_heaps_HeapMem_Object__DESC__C)
                  00820b5c    00000020     vlfft_evmc6670l_pe66.oe66 (.const:ti_sysbios_heaps_HeapMem_Object__PARAMS__C)
                  00820b7c    00000020     vlfft_evmc6670l_pe66.oe66 (.const:ti_sysbios_knl_Clock_Object__DESC__C)
                  00820b9c    00000020     vlfft_evmc6670l_pe66.oe66 (.const:ti_sysbios_knl_Queue_Object__DESC__C)
                  00820bbc    00000020     vlfft_evmc6670l_pe66.oe66 (.const:ti_sysbios_knl_Semaphore_Object__DESC__C)
                  00820bdc    00000020     vlfft_evmc6670l_pe66.oe66 (.const:ti_sysbios_knl_Swi_Object__DESC__C)
                  00820bfc    00000020     vlfft_evmc6670l_pe66.oe66 (.const:ti_sysbios_knl_Task_Object__DESC__C)
                  00820c1c    00000020     vlfft_evmc6670l_pe66.oe66 (.const:ti_sysbios_syncs_SyncSem_Object__DESC__C)
                  00820c3c    00000020     vlfft_evmc6670l_pe66.oe66 (.const:ti_sysbios_xdcruntime_GateThreadSupport_Object__DESC__C)
                  00820c5c    00000020     vlfft_evmc6670l_pe66.oe66 (.const:xdc_runtime_GateNull_Object__DESC__C)
                  00820c7c    00000020     vlfft_evmc6670l_pe66.oe66 (.const:xdc_runtime_knl_GateThread_Object__DESC__C)
                  00820c9c    0000001c     vlfft_evmc6670l_pe66.oe66 (.const:ti_sdo_ipc_MessageQ_Object__PARAMS__C)
                  00820cb8    0000001c     vlfft_evmc6670l_pe66.oe66 (.const:ti_sdo_ipc_transports_TransportShmNotify_Object__PARAMS__C)
                  00820cd4    0000001c     vlfft_evmc6670l_pe66.oe66 (.const:ti_sysbios_syncs_SyncSem_Object__PARAMS__C)
                  00820cf0    00000018     vlfft_evmc6670l_pe66.oe66 (.const:ti_sdo_ipc_Notify_Object__PARAMS__C)
                  00820d08    00000018     vlfft_evmc6670l_pe66.oe66 (.const:ti_sdo_utils_List_Object__PARAMS__C)
                  00820d20    00000018     vlfft_evmc6670l_pe66.oe66 (.const:ti_sysbios_gates_GateAll_Object__PARAMS__C)
                  00820d38    00000018     vlfft_evmc6670l_pe66.oe66 (.const:ti_sysbios_gates_GateHwi_Object__PARAMS__C)
                  00820d50    00000018     vlfft_evmc6670l_pe66.oe66 (.const:ti_sysbios_gates_GateMutexPri_Object__PARAMS__C)
                  00820d68    00000018     vlfft_evmc6670l_pe66.oe66 (.const:ti_sysbios_gates_GateMutex_Object__PARAMS__C)
                  00820d80    00000018     vlfft_evmc6670l_pe66.oe66 (.const:ti_sysbios_gates_GateSwi_Object__PARAMS__C)
                  00820d98    00000018     vlfft_evmc6670l_pe66.oe66 (.const:ti_sysbios_knl_Queue_Object__PARAMS__C)
                  00820db0    00000018     vlfft_evmc6670l_pe66.oe66 (.const:ti_sysbios_knl_Task_hooks__A)
                  00820dc8    00000018     vlfft_evmc6670l_pe66.oe66 (.const:ti_sysbios_xdcruntime_GateThreadSupport_Object__PARAMS__C)
                  00820de0    00000018     vlfft_evmc6670l_pe66.oe66 (.const:xdc_runtime_GateNull_Object__PARAMS__C)
                  00820df8    00000018     vlfft_evmc6670l_pe66.oe66 (.const:xdc_runtime_knl_GateThread_Object__PARAMS__C)
                  00820e10    00000014     stm_d.c66xx_elf.lib : StmLibrary.obj (.const:__FUNCTION__$2)
                  00820e24    00000008     ti.targets.rts6000.ae66 : System.oe66 (.const:.string)
                  00820e2c    00000004     vlfft_evmc6670l_pe66.oe66 (.const:ti_sdo_ipc_GateMP_E_gateUnavailable__C)
                  00820e30    00000012     stm_d.c66xx_elf.lib : StmLibrary.obj (.const:__FUNCTION__$4)
                  00820e42    00000002     --HOLE-- [fill = 0]
                  00820e44    00000008     vlfft_evmc6670l_pe66.oe66 (.const:ti_sysbios_knl_Idle_funcList__C)
                  00820e4c    00000004     vlfft_evmc6670l_pe66.oe66 (.const:ti_sdo_ipc_GateMP_E_localGate__C)
                  00820e50    00000012     stm_d.c66xx_elf.lib : StmLibrary.obj (.const:__FUNCTION__$7)
                  00820e62    00000002     --HOLE-- [fill = 0]
                  00820e64    00000008     vlfft_evmc6670l_pe66.oe66 (.const:ti_sysbios_knl_Task_hooks__C)
                  00820e6c    00000004     vlfft_evmc6670l_pe66.oe66 (.const:ti_sdo_ipc_GateMP_LM_create__C)
                  00820e70    00000011     stm_d.c66xx_elf.lib : StmLibrary.obj (.const:__FUNCTION__$10)
                  00820e81    00000003     --HOLE-- [fill = 0]
                  00820e84    00000008     vlfft_evmc6670l_pe66.oe66 (.const:xdc_runtime_Startup_firstFxns__C)
                  00820e8c    00000004     vlfft_evmc6670l_pe66.oe66 (.const:ti_sdo_ipc_GateMP_LM_delete__C)
                  00820e90    00000011     stm_d.c66xx_elf.lib : StmLibrary.obj (.const:__FUNCTION__$11)
                  00820ea1    00000003     --HOLE-- [fill = 0]
                  00820ea4    00000008     vlfft_evmc6670l_pe66.oe66 (.const:xdc_runtime_Startup_lastFxns__C)
                  00820eac    00000004     vlfft_evmc6670l_pe66.oe66 (.const:ti_sdo_ipc_GateMP_LM_enter__C)
                  00820eb0    00000011     stm_d.c66xx_elf.lib : StmLibrary.obj (.const:__FUNCTION__$12)
                  00820ec1    00000003     --HOLE-- [fill = 0]
                  00820ec4    00000004     vlfft_evmc6670l_pe66.oe66 (.const:ti_sdo_ipc_GateMP_LM_leave__C)
                  00820ec8    00000004     vlfft_evmc6670l_pe66.oe66 (.const:ti_sdo_ipc_GateMP_LM_open__C)
                  00820ecc    00000004     vlfft_evmc6670l_pe66.oe66 (.const:ti_sdo_ipc_GateMP_Module__diagsEnabled__C)
                  00820ed0    00000011     stm_d.c66xx_elf.lib : StmLibrary.obj (.const:__FUNCTION__$6)
                  00820ee1    00000003     --HOLE-- [fill = 0]
                  00820ee4    00000004     vlfft_evmc6670l_pe66.oe66 (.const:ti_sdo_ipc_GateMP_Module__diagsIncluded__C)
                  00820ee8    00000004     vlfft_evmc6670l_pe66.oe66 (.const:ti_sdo_ipc_GateMP_Module__diagsMask__C)
                  00820eec    00000004     vlfft_evmc6670l_pe66.oe66 (.const:ti_sdo_ipc_GateMP_Module__loggerFxn2__C)
                  00820ef0    00000011     stm_d.c66xx_elf.lib : StmLibrary.obj (.const:__FUNCTION__$8)
                  00820f01    00000003     --HOLE-- [fill = 0]
                  00820f04    00000004     vlfft_evmc6670l_pe66.oe66 (.const:ti_sdo_ipc_GateMP_Module__loggerFxn4__C)
                  00820f08    00000004     vlfft_evmc6670l_pe66.oe66 (.const:ti_sdo_ipc_GateMP_Module__loggerObj__C)
                  00820f0c    00000004     vlfft_evmc6670l_pe66.oe66 (.const:ti_sdo_ipc_Ipc_A_addrNotCacheAligned__C)
                  00820f10    00000011     ti.targets.rts6000.ae66 : System.oe66 (.const:digtohex)
                  00820f21    00000003     --HOLE-- [fill = 0]
                  00820f24    00000004     vlfft_evmc6670l_pe66.oe66 (.const:ti_sdo_ipc_Ipc_A_addrNotInSharedRegion__C)
                  00820f28    00000004     vlfft_evmc6670l_pe66.oe66 (.const:ti_sdo_ipc_Ipc_A_internal__C)
                  00820f2c    00000004     vlfft_evmc6670l_pe66.oe66 (.const:ti_sdo_ipc_Ipc_A_invArgument__C)
                  00820f30    00000010     stm_d.c66xx_elf.lib : StmLibrary.obj (.const:__FUNCTION__$3)
                  00820f40    00000010                         : StmLibrary.obj (.const:__FUNCTION__$5)
                  00820f50    00000010                         : StmLibrary.obj (.const:__FUNCTION__$9)
                  00820f60    00000010     vlfft_evmc6670l_pe66.oe66 (.const:ti_sdo_utils_MultiProc_nameList__A)
                  00820f70    00000010     vlfft_evmc6670l_pe66.oe66 (.const:ti_sysbios_family_c64p_EventCombiner_EVTMASK__C)
                  00820f80    0000000f     stm_d.c66xx_elf.lib : StmLibrary.obj (.const:__FUNCTION__$13)
                  00820f8f    00000001     --HOLE-- [fill = 0]
                  00820f90    0000000c                         : StmLibrary.obj (.const:__FUNCTION__$1)
                  00820f9c    00000004     vlfft_evmc6670l_pe66.oe66 (.const:ti_sdo_ipc_Ipc_A_invParam__C)
                  00820fa0    0000000c     vlfft_evmc6670l_pe66.oe66 (.const:xdc_runtime_Startup_firstFxns__A)
                  00820fac    00000004     vlfft_evmc6670l_pe66.oe66 (.const:ti_sdo_ipc_Ipc_A_nullArgument__C)
                  00820fb0    0000000b     stm_d.c66xx_elf.lib : StmLibrary.obj (.const:__FUNCTION__$14)
                  00820fbb    00000001     --HOLE-- [fill = 0]
                  00820fbc    00000004     vlfft_evmc6670l_pe66.oe66 (.const:ti_sdo_ipc_Ipc_A_nullPointer__C)
                  00820fc0    00000008     vlfft_evmc6670l_pe66.oe66 (.const:ti_sdo_ipc_family_c647x_MultiProcSetup_procMap__A)
                  00820fc8    00000004     vlfft_evmc6670l_pe66.oe66 (.const:ti_sdo_ipc_Ipc_E_internal__C)
                  00820fcc    00000004     vlfft_evmc6670l_pe66.oe66 (.const:ti_sdo_ipc_Ipc_E_nameFailed__C)
                  00820fd0    00000008     vlfft_evmc6670l_pe66.oe66 (.const:ti_sdo_utils_MultiProc_procIdList__A)
                  00820fd8    00000004     vlfft_evmc6670l_pe66.oe66 (.const:ti_sdo_ipc_Ipc_E_versionMismatch__C)
                  00820fdc    00000004     vlfft_evmc6670l_pe66.oe66 (.const:ti_sdo_ipc_Ipc_Module__diagsEnabled__C)
                  00820fe0    00000004     vlfft_evmc6670l_pe66.oe66 (.const:ti_sdo_ipc_Ipc_Module__diagsIncluded__C)
                  00820fe4    00000004     vlfft_evmc6670l_pe66.oe66 (.const:ti_sdo_ipc_Ipc_Module__diagsMask__C)
                  00820fe8    00000004     vlfft_evmc6670l_pe66.oe66 (.const:ti_sdo_ipc_Ipc_numUserFxns__C)
                  00820fec    00000004     vlfft_evmc6670l_pe66.oe66 (.const:ti_sdo_ipc_Ipc_procSync__C)
                  00820ff0    00000004     vlfft_evmc6670l_pe66.oe66 (.const:ti_sdo_ipc_Ipc_userFxns__C)
                  00820ff4    00000004     vlfft_evmc6670l_pe66.oe66 (.const:ti_sdo_ipc_ListMP_Module__diagsEnabled__C)
                  00820ff8    00000004     vlfft_evmc6670l_pe66.oe66 (.const:ti_sdo_ipc_ListMP_Module__diagsIncluded__C)
                  00820ffc    00000004     vlfft_evmc6670l_pe66.oe66 (.const:ti_sdo_ipc_ListMP_Module__diagsMask__C)
                  00821000    00000004     vlfft_evmc6670l_pe66.oe66 (.const:ti_sdo_ipc_MessageQ_A_heapIdInvalid__C)
                  00821004    00000004     vlfft_evmc6670l_pe66.oe66 (.const:ti_sdo_ipc_MessageQ_A_invalidMsg__C)
                  00821008    00000004     vlfft_evmc6670l_pe66.oe66 (.const:ti_sdo_ipc_MessageQ_A_invalidObj__C)
                  0082100c    00000004     vlfft_evmc6670l_pe66.oe66 (.const:ti_sdo_ipc_MessageQ_A_invalidParam__C)
                  00821010    00000004     vlfft_evmc6670l_pe66.oe66 (.const:ti_sdo_ipc_MessageQ_A_invalidQueueId__C)
                  00821014    00000004     vlfft_evmc6670l_pe66.oe66 (.const:ti_sdo_ipc_MessageQ_A_procIdInvalid__C)
                  00821018    00000004     vlfft_evmc6670l_pe66.oe66 (.const:ti_sdo_ipc_MessageQ_A_unregisteredTransport__C)
                  0082101c    00000004     vlfft_evmc6670l_pe66.oe66 (.const:ti_sdo_ipc_MessageQ_E_maxReached__C)
                  00821020    00000004     vlfft_evmc6670l_pe66.oe66 (.const:ti_sdo_ipc_MessageQ_E_nameFailed__C)
                  00821024    00000004     vlfft_evmc6670l_pe66.oe66 (.const:ti_sdo_ipc_MessageQ_Instance_State_highList__O)
                  00821028    00000004     vlfft_evmc6670l_pe66.oe66 (.const:ti_sdo_ipc_MessageQ_Instance_State_normalList__O)
                  0082102c    00000004     vlfft_evmc6670l_pe66.oe66 (.const:ti_sdo_ipc_MessageQ_LM_alloc__C)
                  00821030    00000004     vlfft_evmc6670l_pe66.oe66 (.const:ti_sdo_ipc_MessageQ_LM_get__C)
                  00821034    00000004     vlfft_evmc6670l_pe66.oe66 (.const:ti_sdo_ipc_MessageQ_LM_putLocal__C)
                  00821038    00000004     vlfft_evmc6670l_pe66.oe66 (.const:ti_sdo_ipc_MessageQ_Module__diagsEnabled__C)
                  0082103c    00000004     vlfft_evmc6670l_pe66.oe66 (.const:ti_sdo_ipc_MessageQ_Module__diagsIncluded__C)
                  00821040    00000004     vlfft_evmc6670l_pe66.oe66 (.const:ti_sdo_ipc_MessageQ_Module__diagsMask__C)
                  00821044    00000004     vlfft_evmc6670l_pe66.oe66 (.const:ti_sdo_ipc_MessageQ_Module__loggerFxn4__C)
                  00821048    00000004     vlfft_evmc6670l_pe66.oe66 (.const:ti_sdo_ipc_MessageQ_Module__loggerObj__C)
                  0082104c    00000004     vlfft_evmc6670l_pe66.oe66 (.const:ti_sdo_ipc_MessageQ_Object__count__C)
                  00821050    00000004     vlfft_evmc6670l_pe66.oe66 (.const:ti_sdo_ipc_MessageQ_Object__heap__C)
                  00821054    00000004     vlfft_evmc6670l_pe66.oe66 (.const:ti_sdo_ipc_MessageQ_Object__table__C)
                  00821058    00000004     vlfft_evmc6670l_pe66.oe66 (.const:ti_sdo_ipc_MessageQ_maxRuntimeEntries__C)
                  0082105c    00000004     vlfft_evmc6670l_pe66.oe66 (.const:ti_sdo_ipc_Notify_A_alreadyRegistered__C)
                  00821060    00000004     vlfft_evmc6670l_pe66.oe66 (.const:ti_sdo_ipc_Notify_A_internal__C)
                  00821064    00000004     vlfft_evmc6670l_pe66.oe66 (.const:ti_sdo_ipc_Notify_A_invArgument__C)
                  00821068    00000004     vlfft_evmc6670l_pe66.oe66 (.const:ti_sdo_ipc_Notify_A_notRegistered__C)
                  0082106c    00000004     vlfft_evmc6670l_pe66.oe66 (.const:ti_sdo_ipc_Notify_A_reservedEvent__C)
                  00821070    00000004     vlfft_evmc6670l_pe66.oe66 (.const:ti_sdo_ipc_Notify_Module__diagsEnabled__C)
                  00821074    00000004     vlfft_evmc6670l_pe66.oe66 (.const:ti_sdo_ipc_Notify_Module__diagsIncluded__C)
                  00821078    00000004     vlfft_evmc6670l_pe66.oe66 (.const:ti_sdo_ipc_Notify_Module__diagsMask__C)
                  0082107c    00000004     vlfft_evmc6670l_pe66.oe66 (.const:ti_sdo_ipc_Notify_Module__gateObj__C)
                  00821080    00000004     vlfft_evmc6670l_pe66.oe66 (.const:ti_sdo_ipc_Notify_Object__heap__C)
                  00821084    00000004     vlfft_evmc6670l_pe66.oe66 (.const:ti_sdo_ipc_Notify_numEvents__C)
                  00821088    00000004     vlfft_evmc6670l_pe66.oe66 (.const:ti_sdo_ipc_SharedRegion_A_addrOutOfRange__C)
                  0082108c    00000004     vlfft_evmc6670l_pe66.oe66 (.const:ti_sdo_ipc_SharedRegion_A_idTooLarge__C)
                  00821090    00000004     vlfft_evmc6670l_pe66.oe66 (.const:ti_sdo_ipc_SharedRegion_A_noHeap__C)
                  00821094    00000004     vlfft_evmc6670l_pe66.oe66 (.const:ti_sdo_ipc_SharedRegion_A_region0Invalid__C)
                  00821098    00000004     vlfft_evmc6670l_pe66.oe66 (.const:ti_sdo_ipc_SharedRegion_A_regionInvalid__C)
                  0082109c    00000004     vlfft_evmc6670l_pe66.oe66 (.const:ti_sdo_ipc_SharedRegion_A_reserveTooMuch__C)
                  008210a0    00000004     vlfft_evmc6670l_pe66.oe66 (.const:ti_sdo_ipc_SharedRegion_INVALIDSRPTR__C)
                  008210a4    00000004     vlfft_evmc6670l_pe66.oe66 (.const:ti_sdo_ipc_SharedRegion_Module__diagsEnabled__C)
                  008210a8    00000004     vlfft_evmc6670l_pe66.oe66 (.const:ti_sdo_ipc_SharedRegion_Module__diagsIncluded__C)
                  008210ac    00000004     vlfft_evmc6670l_pe66.oe66 (.const:ti_sdo_ipc_SharedRegion_Module__diagsMask__C)
                  008210b0    00000004     vlfft_evmc6670l_pe66.oe66 (.const:ti_sdo_ipc_SharedRegion_cacheLineSize__C)
                  008210b4    00000004     vlfft_evmc6670l_pe66.oe66 (.const:ti_sdo_ipc_SharedRegion_numOffsetBits__C)
                  008210b8    00000004     vlfft_evmc6670l_pe66.oe66 (.const:ti_sdo_ipc_SharedRegion_offsetMask__C)
                  008210bc    00000004     vlfft_evmc6670l_pe66.oe66 (.const:ti_sdo_ipc_family_c647x_Interrupt_INTERDSPINT__C)
                  008210c0    00000004     vlfft_evmc6670l_pe66.oe66 (.const:ti_sdo_ipc_family_c647x_Interrupt_IPCAR0__C)
                  008210c4    00000004     vlfft_evmc6670l_pe66.oe66 (.const:ti_sdo_ipc_family_c647x_Interrupt_IPCGR0__C)
                  008210c8    00000004     vlfft_evmc6670l_pe66.oe66 (.const:ti_sdo_ipc_family_c647x_Interrupt_KICK0__C)
                  008210cc    00000004     vlfft_evmc6670l_pe66.oe66 (.const:ti_sdo_ipc_family_c647x_Interrupt_KICK1__C)
                  008210d0    00000004     vlfft_evmc6670l_pe66.oe66 (.const:ti_sdo_ipc_family_c647x_MultiProcSetup_A_invalidProcessor__C)
                  008210d4    00000004     vlfft_evmc6670l_pe66.oe66 (.const:ti_sdo_ipc_family_c647x_MultiProcSetup_Module__diagsEnabled__C)
                  008210d8    00000004     vlfft_evmc6670l_pe66.oe66 (.const:ti_sdo_ipc_family_c647x_MultiProcSetup_Module__diagsIncluded__C)
                  008210dc    00000004     vlfft_evmc6670l_pe66.oe66 (.const:ti_sdo_ipc_family_c647x_MultiProcSetup_Module__diagsMask__C)
                  008210e0    00000004     vlfft_evmc6670l_pe66.oe66 (.const:ti_sdo_ipc_family_c647x_MultiProcSetup_procMap__C)
                  008210e4    00000004     vlfft_evmc6670l_pe66.oe66 (.const:ti_sdo_ipc_family_c647x_NotifyCircSetup_dspIntVectId__C)
                  008210e8    00000004     vlfft_evmc6670l_pe66.oe66 (.const:ti_sdo_ipc_gates_GateHWSem_A_invSemNum__C)
                  008210ec    00000004     vlfft_evmc6670l_pe66.oe66 (.const:ti_sdo_ipc_gates_GateHWSem_Module__diagsEnabled__C)
                  008210f0    00000004     vlfft_evmc6670l_pe66.oe66 (.const:ti_sdo_ipc_gates_GateHWSem_Module__diagsIncluded__C)
                  008210f4    00000004     vlfft_evmc6670l_pe66.oe66 (.const:ti_sdo_ipc_gates_GateHWSem_Module__diagsMask__C)
                  008210f8    00000004     vlfft_evmc6670l_pe66.oe66 (.const:ti_sdo_ipc_gates_GateHWSem_baseAddr__C)
                  008210fc    00000004     vlfft_evmc6670l_pe66.oe66 (.const:ti_sdo_ipc_gates_GateHWSem_numSems__C)
                  00821100    00000004     vlfft_evmc6670l_pe66.oe66 (.const:ti_sdo_ipc_gates_GateHWSem_reservedMaskArr__A)
                  00821104    00000004     vlfft_evmc6670l_pe66.oe66 (.const:ti_sdo_ipc_gates_GateHWSem_reservedMaskArr__C)
                  00821108    00000004     vlfft_evmc6670l_pe66.oe66 (.const:ti_sdo_ipc_gates_GateMPSupportNull_A_invalidAction__C)
                  0082110c    00000004     vlfft_evmc6670l_pe66.oe66 (.const:ti_sdo_ipc_gates_GateMPSupportNull_Module__diagsEnabled__C)
                  00821110    00000004     vlfft_evmc6670l_pe66.oe66 (.const:ti_sdo_ipc_gates_GateMPSupportNull_Module__diagsIncluded__C)
                  00821114    00000004     vlfft_evmc6670l_pe66.oe66 (.const:ti_sdo_ipc_gates_GateMPSupportNull_Module__diagsMask__C)
                  00821118    00000004     vlfft_evmc6670l_pe66.oe66 (.const:ti_sdo_ipc_gates_GateMPSupportNull_action__C)
                  0082111c    00000004     vlfft_evmc6670l_pe66.oe66 (.const:ti_sdo_ipc_gates_GatePeterson_E_gateRemotelyOpened__C)
                  00821120    00000004     vlfft_evmc6670l_pe66.oe66 (.const:ti_sdo_ipc_gates_GatePeterson_Module__diagsEnabled__C)
                  00821124    00000004     vlfft_evmc6670l_pe66.oe66 (.const:ti_sdo_ipc_gates_GatePeterson_Module__diagsIncluded__C)
                  00821128    00000004     vlfft_evmc6670l_pe66.oe66 (.const:ti_sdo_ipc_gates_GatePeterson_Module__diagsMask__C)
                  0082112c    00000004     vlfft_evmc6670l_pe66.oe66 (.const:ti_sdo_ipc_gates_GatePeterson_numInstances__C)
                  00821130    00000004     vlfft_evmc6670l_pe66.oe66 (.const:ti_sdo_ipc_heaps_HeapBufMP_A_badAlignment__C)
                  00821134    00000004     vlfft_evmc6670l_pe66.oe66 (.const:ti_sdo_ipc_heaps_HeapBufMP_A_invBlockFreed__C)
                  00821138    00000004     vlfft_evmc6670l_pe66.oe66 (.const:ti_sdo_ipc_heaps_HeapBufMP_E_alignTooLarge__C)
                  0082113c    00000004     vlfft_evmc6670l_pe66.oe66 (.const:ti_sdo_ipc_heaps_HeapBufMP_E_exactFail__C)
                  00821140    00000004     vlfft_evmc6670l_pe66.oe66 (.const:ti_sdo_ipc_heaps_HeapBufMP_E_noBlocksLeft__C)
                  00821144    00000004     vlfft_evmc6670l_pe66.oe66 (.const:ti_sdo_ipc_heaps_HeapBufMP_E_sizeTooLarge__C)
                  00821148    00000004     vlfft_evmc6670l_pe66.oe66 (.const:ti_sdo_ipc_heaps_HeapBufMP_Module__diagsEnabled__C)
                  0082114c    00000004     vlfft_evmc6670l_pe66.oe66 (.const:ti_sdo_ipc_heaps_HeapBufMP_Module__diagsIncluded__C)
                  00821150    00000004     vlfft_evmc6670l_pe66.oe66 (.const:ti_sdo_ipc_heaps_HeapBufMP_Module__diagsMask__C)
                  00821154    00000004     vlfft_evmc6670l_pe66.oe66 (.const:ti_sdo_ipc_heaps_HeapMemMP_A_align__C)
                  00821158    00000004     vlfft_evmc6670l_pe66.oe66 (.const:ti_sdo_ipc_heaps_HeapMemMP_A_heapSize__C)
                  0082115c    00000004     vlfft_evmc6670l_pe66.oe66 (.const:ti_sdo_ipc_heaps_HeapMemMP_A_invalidFree__C)
                  00821160    00000004     vlfft_evmc6670l_pe66.oe66 (.const:ti_sdo_ipc_heaps_HeapMemMP_A_zeroBlock__C)
                  00821164    00000004     vlfft_evmc6670l_pe66.oe66 (.const:ti_sdo_ipc_heaps_HeapMemMP_E_memory__C)
                  00821168    00000004     vlfft_evmc6670l_pe66.oe66 (.const:ti_sdo_ipc_heaps_HeapMemMP_Module__diagsEnabled__C)
                  0082116c    00000004     vlfft_evmc6670l_pe66.oe66 (.const:ti_sdo_ipc_heaps_HeapMemMP_Module__diagsIncluded__C)
                  00821170    00000004     vlfft_evmc6670l_pe66.oe66 (.const:ti_sdo_ipc_heaps_HeapMemMP_Module__diagsMask__C)
                  00821174    00000004     vlfft_evmc6670l_pe66.oe66 (.const:ti_sdo_ipc_interfaces_IGateMPSupport_Interface__BASE__C)
                  00821178    00000004     vlfft_evmc6670l_pe66.oe66 (.const:ti_sdo_ipc_interfaces_IMessageQTransport_Interface__BASE__C)
                  0082117c    00000004     vlfft_evmc6670l_pe66.oe66 (.const:ti_sdo_ipc_interfaces_INotifyDriver_Interface__BASE__C)
                  00821180    00000004     vlfft_evmc6670l_pe66.oe66 (.const:ti_sdo_ipc_notifyDrivers_NotifyDriverCirc_A_notSupported__C)
                  00821184    00000004     vlfft_evmc6670l_pe66.oe66 (.const:ti_sdo_ipc_notifyDrivers_NotifyDriverCirc_Module__diagsEnabled__C)
                  00821188    00000004     vlfft_evmc6670l_pe66.oe66 (.const:ti_sdo_ipc_notifyDrivers_NotifyDriverCirc_Module__diagsIncluded__C)
                  0082118c    00000004     vlfft_evmc6670l_pe66.oe66 (.const:ti_sdo_ipc_notifyDrivers_NotifyDriverCirc_Module__diagsMask__C)
                  00821190    00000004     vlfft_evmc6670l_pe66.oe66 (.const:ti_sdo_ipc_notifyDrivers_NotifyDriverCirc_maxIndex__C)
                  00821194    00000004     vlfft_evmc6670l_pe66.oe66 (.const:ti_sdo_ipc_notifyDrivers_NotifyDriverCirc_modIndex__C)
                  00821198    00000004     vlfft_evmc6670l_pe66.oe66 (.const:ti_sdo_ipc_notifyDrivers_NotifyDriverCirc_numMsgs__C)
                  0082119c    00000004     vlfft_evmc6670l_pe66.oe66 (.const:ti_sdo_ipc_nsremote_NameServerRemoteNotify_A_invalidValueLen__C)
                  008211a0    00000004     vlfft_evmc6670l_pe66.oe66 (.const:ti_sdo_ipc_nsremote_NameServerRemoteNotify_Instance_State_semMultiBlock__O)
                  008211a4    00000004     vlfft_evmc6670l_pe66.oe66 (.const:ti_sdo_ipc_nsremote_NameServerRemoteNotify_Instance_State_semRemoteWait__O)
                  008211a8    00000004     vlfft_evmc6670l_pe66.oe66 (.const:ti_sdo_ipc_nsremote_NameServerRemoteNotify_Instance_State_swiObj__O)
                  008211ac    00000004     vlfft_evmc6670l_pe66.oe66 (.const:ti_sdo_ipc_nsremote_NameServerRemoteNotify_Module__diagsEnabled__C)
                  008211b0    00000004     vlfft_evmc6670l_pe66.oe66 (.const:ti_sdo_ipc_nsremote_NameServerRemoteNotify_Module__diagsIncluded__C)
                  008211b4    00000004     vlfft_evmc6670l_pe66.oe66 (.const:ti_sdo_ipc_nsremote_NameServerRemoteNotify_Module__diagsMask__C)
                  008211b8    00000004     vlfft_evmc6670l_pe66.oe66 (.const:ti_sdo_ipc_nsremote_NameServerRemoteNotify_notifyEventId__C)
                  008211bc    00000004     vlfft_evmc6670l_pe66.oe66 (.const:ti_sdo_ipc_nsremote_NameServerRemoteNotify_timeout__C)
                  008211c0    00000004     vlfft_evmc6670l_pe66.oe66 (.const:ti_sdo_ipc_transports_TransportShmNotifySetup_priority__C)
                  008211c4    00000004     vlfft_evmc6670l_pe66.oe66 (.const:ti_sdo_utils_INameServerRemote_Interface__BASE__C)
                  008211c8    00000004     vlfft_evmc6670l_pe66.oe66 (.const:ti_sdo_utils_List_Object__count__C)
                  008211cc    00000004     vlfft_evmc6670l_pe66.oe66 (.const:ti_sdo_utils_List_Object__table__C)
                  008211d0    00000004     vlfft_evmc6670l_pe66.oe66 (.const:ti_sdo_utils_MultiProc_A_invalidMultiProcId__C)
                  008211d4    00000004     vlfft_evmc6670l_pe66.oe66 (.const:ti_sdo_utils_MultiProc_A_invalidProcName__C)
                  008211d8    00000004     vlfft_evmc6670l_pe66.oe66 (.const:ti_sdo_utils_MultiProc_Module__diagsEnabled__C)
                  008211dc    00000004     vlfft_evmc6670l_pe66.oe66 (.const:ti_sdo_utils_MultiProc_Module__diagsIncluded__C)
                  008211e0    00000004     vlfft_evmc6670l_pe66.oe66 (.const:ti_sdo_utils_MultiProc_Module__diagsMask__C)
                  008211e4    00000004     vlfft_evmc6670l_pe66.oe66 (.const:ti_sdo_utils_MultiProc_nameList__C)
                  008211e8    00000004     vlfft_evmc6670l_pe66.oe66 (.const:ti_sdo_utils_MultiProc_procIdList__C)
                  008211ec    00000004     vlfft_evmc6670l_pe66.oe66 (.const:ti_sdo_utils_NameServer_A_invArgument__C)
                  008211f0    00000004     vlfft_evmc6670l_pe66.oe66 (.const:ti_sdo_utils_NameServer_A_invalidLen__C)
                  008211f4    00000004     vlfft_evmc6670l_pe66.oe66 (.const:ti_sdo_utils_NameServer_E_entryExists__C)
                  008211f8    00000004     vlfft_evmc6670l_pe66.oe66 (.const:ti_sdo_utils_NameServer_E_maxReached__C)
                  008211fc    00000004     vlfft_evmc6670l_pe66.oe66 (.const:ti_sdo_utils_NameServer_Instance_State_freeList__O)
                  00821200    00000004     vlfft_evmc6670l_pe66.oe66 (.const:ti_sdo_utils_NameServer_Instance_State_nameList__O)
                  00821204    00000004     vlfft_evmc6670l_pe66.oe66 (.const:ti_sdo_utils_NameServer_Module__diagsEnabled__C)
                  00821208    00000004     vlfft_evmc6670l_pe66.oe66 (.const:ti_sdo_utils_NameServer_Module__diagsIncluded__C)
                  0082120c    00000004     vlfft_evmc6670l_pe66.oe66 (.const:ti_sdo_utils_NameServer_Module__diagsMask__C)
                  00821210    00000004     vlfft_evmc6670l_pe66.oe66 (.const:ti_sdo_utils_NameServer_Object__count__C)
                  00821214    00000004     vlfft_evmc6670l_pe66.oe66 (.const:ti_sdo_utils_NameServer_Object__table__C)
                  00821218    00000004     vlfft_evmc6670l_pe66.oe66 (.const:ti_sysbios_BIOS_Module__diagsEnabled__C)
                  0082121c    00000004     vlfft_evmc6670l_pe66.oe66 (.const:ti_sysbios_BIOS_Module__diagsIncluded__C)
                  00821220    00000004     vlfft_evmc6670l_pe66.oe66 (.const:ti_sysbios_BIOS_Module__diagsMask__C)
                  00821224    00000004     vlfft_evmc6670l_pe66.oe66 (.const:ti_sysbios_BIOS_installedErrorHook__C)
                  00821228    00000004     vlfft_evmc6670l_pe66.oe66 (.const:ti_sysbios_family_c62_TaskSupport_stackAlignment__C)
                  0082122c    00000004     vlfft_evmc6670l_pe66.oe66 (.const:ti_sysbios_family_c64p_EventCombiner_E_unpluggedEvent__C)
                  00821230    00000004     vlfft_evmc6670l_pe66.oe66 (.const:ti_sysbios_family_c64p_Exception_E_exceptionMin__C)
                  00821234    00000004     vlfft_evmc6670l_pe66.oe66 (.const:ti_sysbios_family_c64p_Exception_exceptionHook__C)
                  00821238    00000004     vlfft_evmc6670l_pe66.oe66 (.const:ti_sysbios_family_c64p_Exception_externalHook__C)
                  0082123c    00000004     vlfft_evmc6670l_pe66.oe66 (.const:ti_sysbios_family_c64p_Exception_internalHook__C)
                  00821240    00000004     vlfft_evmc6670l_pe66.oe66 (.const:ti_sysbios_family_c64p_Exception_nmiHook__C)
                  00821244    00000004     vlfft_evmc6670l_pe66.oe66 (.const:ti_sysbios_family_c64p_Hwi_E_alreadyDefined__C)
                  00821248    00000004     vlfft_evmc6670l_pe66.oe66 (.const:ti_sysbios_family_c64p_Hwi_LD_end__C)
                  0082124c    00000004     vlfft_evmc6670l_pe66.oe66 (.const:ti_sysbios_family_c64p_Hwi_LM_begin__C)
                  00821250    00000004     vlfft_evmc6670l_pe66.oe66 (.const:ti_sysbios_family_c64p_Hwi_Module__diagsEnabled__C)
                  00821254    00000004     vlfft_evmc6670l_pe66.oe66 (.const:ti_sysbios_family_c64p_Hwi_Module__diagsIncluded__C)
                  00821258    00000004     vlfft_evmc6670l_pe66.oe66 (.const:ti_sysbios_family_c64p_Hwi_Module__diagsMask__C)
                  0082125c    00000004     vlfft_evmc6670l_pe66.oe66 (.const:ti_sysbios_family_c64p_Hwi_Module__loggerFxn1__C)
                  00821260    00000004     vlfft_evmc6670l_pe66.oe66 (.const:ti_sysbios_family_c64p_Hwi_Module__loggerFxn8__C)
                  00821264    00000004     vlfft_evmc6670l_pe66.oe66 (.const:ti_sysbios_family_c64p_Hwi_Module__loggerObj__C)
                  00821268    00000004     vlfft_evmc6670l_pe66.oe66 (.const:ti_sysbios_family_c66_Cache_atomicBlockSize__C)
                  0082126c    00000004     vlfft_evmc6670l_pe66.oe66 (.const:ti_sysbios_family_c66_tci66xx_CpIntc_E_unpluggedSysInt__C)
                  00821270    00000004     vlfft_evmc6670l_pe66.oe66 (.const:ti_sysbios_family_c66_tci66xx_CpIntc_hostIntToEventId__C)
                  00821274    00000004     vlfft_evmc6670l_pe66.oe66 (.const:ti_sysbios_family_c66_tci66xx_CpIntc_numStatusRegs__C)
                  00821278    00000004     vlfft_evmc6670l_pe66.oe66 (.const:ti_sysbios_family_c66_tci66xx_CpIntc_numSysInts__C)
                  0082127c    00000004     vlfft_evmc6670l_pe66.oe66 (.const:ti_sysbios_family_c66_tci66xx_CpIntc_sysIntToHostInt__C)
                  00821280    00000004     vlfft_evmc6670l_pe66.oe66 (.const:ti_sysbios_gates_GateMutexPri_A_badContext__C)
                  00821284    00000004     vlfft_evmc6670l_pe66.oe66 (.const:ti_sysbios_gates_GateMutexPri_Instance_State_pendQ__O)
                  00821288    00000004     vlfft_evmc6670l_pe66.oe66 (.const:ti_sysbios_gates_GateMutexPri_Module__diagsEnabled__C)
                  0082128c    00000004     vlfft_evmc6670l_pe66.oe66 (.const:ti_sysbios_gates_GateMutexPri_Module__diagsIncluded__C)
                  00821290    00000004     vlfft_evmc6670l_pe66.oe66 (.const:ti_sysbios_gates_GateMutexPri_Module__diagsMask__C)
                  00821294    00000004     vlfft_evmc6670l_pe66.oe66 (.const:ti_sysbios_gates_GateMutex_A_badContext__C)
                  00821298    00000004     vlfft_evmc6670l_pe66.oe66 (.const:ti_sysbios_gates_GateMutex_Instance_State_sem__O)
                  0082129c    00000004     vlfft_evmc6670l_pe66.oe66 (.const:ti_sysbios_gates_GateMutex_Module__diagsEnabled__C)
                  008212a0    00000004     vlfft_evmc6670l_pe66.oe66 (.const:ti_sysbios_gates_GateMutex_Module__diagsIncluded__C)
                  008212a4    00000004     vlfft_evmc6670l_pe66.oe66 (.const:ti_sysbios_gates_GateMutex_Module__diagsMask__C)
                  008212a8    00000004     vlfft_evmc6670l_pe66.oe66 (.const:ti_sysbios_gates_GateSwi_A_badContext__C)
                  008212ac    00000004     vlfft_evmc6670l_pe66.oe66 (.const:ti_sysbios_gates_GateSwi_Module__diagsEnabled__C)
                  008212b0    00000004     vlfft_evmc6670l_pe66.oe66 (.const:ti_sysbios_gates_GateSwi_Module__diagsIncluded__C)
                  008212b4    00000004     vlfft_evmc6670l_pe66.oe66 (.const:ti_sysbios_gates_GateSwi_Module__diagsMask__C)
                  008212b8    00000004     vlfft_evmc6670l_pe66.oe66 (.const:ti_sysbios_hal_Hwi_E_stackOverflow__C)
                  008212bc    00000004     vlfft_evmc6670l_pe66.oe66 (.const:ti_sysbios_heaps_HeapMem_A_align__C)
                  008212c0    00000004     vlfft_evmc6670l_pe66.oe66 (.const:ti_sysbios_heaps_HeapMem_A_heapSize__C)
                  008212c4    00000004     vlfft_evmc6670l_pe66.oe66 (.const:ti_sysbios_heaps_HeapMem_A_invalidFree__C)
                  008212c8    00000004     vlfft_evmc6670l_pe66.oe66 (.const:ti_sysbios_heaps_HeapMem_A_zeroBlock__C)
                  008212cc    00000004     vlfft_evmc6670l_pe66.oe66 (.const:ti_sysbios_heaps_HeapMem_E_memory__C)
                  008212d0    00000004     vlfft_evmc6670l_pe66.oe66 (.const:ti_sysbios_heaps_HeapMem_Module__diagsEnabled__C)
                  008212d4    00000004     vlfft_evmc6670l_pe66.oe66 (.const:ti_sysbios_heaps_HeapMem_Module__diagsIncluded__C)
                  008212d8    00000004     vlfft_evmc6670l_pe66.oe66 (.const:ti_sysbios_heaps_HeapMem_Module__diagsMask__C)
                  008212dc    00000004     vlfft_evmc6670l_pe66.oe66 (.const:ti_sysbios_heaps_HeapMem_Module__gateObj__C)
                  008212e0    00000004     vlfft_evmc6670l_pe66.oe66 (.const:ti_sysbios_heaps_HeapMem_Object__count__C)
                  008212e4    00000004     vlfft_evmc6670l_pe66.oe66 (.const:ti_sysbios_heaps_HeapMem_Object__table__C)
                  008212e8    00000004     vlfft_evmc6670l_pe66.oe66 (.const:ti_sysbios_heaps_HeapMem_reqAlignMask__C)
                  008212ec    00000004     vlfft_evmc6670l_pe66.oe66 (.const:ti_sysbios_heaps_HeapMem_reqAlign__C)
                  008212f0    00000004     vlfft_evmc6670l_pe66.oe66 (.const:ti_sysbios_knl_Clock_A_badThreadType__C)
                  008212f4    00000004     vlfft_evmc6670l_pe66.oe66 (.const:ti_sysbios_knl_Clock_LM_begin__C)
                  008212f8    00000004     vlfft_evmc6670l_pe66.oe66 (.const:ti_sysbios_knl_Clock_LM_tick__C)
                  008212fc    00000004     vlfft_evmc6670l_pe66.oe66 (.const:ti_sysbios_knl_Clock_LW_delayed__C)
                  00821300    00000004     vlfft_evmc6670l_pe66.oe66 (.const:ti_sysbios_knl_Clock_Module_State_clockQ__O)
                  00821304    00000004     vlfft_evmc6670l_pe66.oe66 (.const:ti_sysbios_knl_Clock_Module__diagsEnabled__C)
                  00821308    00000004     vlfft_evmc6670l_pe66.oe66 (.const:ti_sysbios_knl_Clock_Module__diagsIncluded__C)
                  0082130c    00000004     vlfft_evmc6670l_pe66.oe66 (.const:ti_sysbios_knl_Clock_Module__diagsMask__C)
                  00821310    00000004     vlfft_evmc6670l_pe66.oe66 (.const:ti_sysbios_knl_Clock_Module__loggerFxn1__C)
                  00821314    00000004     vlfft_evmc6670l_pe66.oe66 (.const:ti_sysbios_knl_Clock_Module__loggerFxn2__C)
                  00821318    00000004     vlfft_evmc6670l_pe66.oe66 (.const:ti_sysbios_knl_Clock_Module__loggerObj__C)
                  0082131c    00000004     vlfft_evmc6670l_pe66.oe66 (.const:ti_sysbios_knl_Clock_tickMode__C)
                  00821320    00000004     vlfft_evmc6670l_pe66.oe66 (.const:ti_sysbios_knl_Clock_tickPeriod__C)
                  00821324    00000004     vlfft_evmc6670l_pe66.oe66 (.const:ti_sysbios_knl_Clock_tickSource__C)
                  00821328    00000004     vlfft_evmc6670l_pe66.oe66 (.const:ti_sysbios_knl_Queue_Object__count__C)
                  0082132c    00000004     vlfft_evmc6670l_pe66.oe66 (.const:ti_sysbios_knl_Queue_Object__table__C)
                  00821330    00000004     vlfft_evmc6670l_pe66.oe66 (.const:ti_sysbios_knl_Idle_funcList__A)
                  00821334    00000004     vlfft_evmc6670l_pe66.oe66 (.const:ti_sysbios_knl_Semaphore_A_badContext__C)
                  00821338    00000004     vlfft_evmc6670l_pe66.oe66 (.const:ti_sysbios_knl_Semaphore_A_noEvents__C)
                  0082133c    00000004     vlfft_evmc6670l_pe66.oe66 (.const:ti_sysbios_knl_Semaphore_Instance_State_pendQ__O)
                  00821340    00000004     vlfft_evmc6670l_pe66.oe66 (.const:ti_sysbios_knl_Semaphore_LM_pend__C)
                  00821344    00000004     vlfft_evmc6670l_pe66.oe66 (.const:ti_sysbios_knl_Semaphore_LM_post__C)
                  00821348    00000004     vlfft_evmc6670l_pe66.oe66 (.const:ti_sysbios_knl_Semaphore_Module__diagsEnabled__C)
                  0082134c    00000004     vlfft_evmc6670l_pe66.oe66 (.const:ti_sysbios_knl_Semaphore_Module__diagsIncluded__C)
                  00821350    00000004     vlfft_evmc6670l_pe66.oe66 (.const:ti_sysbios_knl_Semaphore_Module__diagsMask__C)
                  00821354    00000004     vlfft_evmc6670l_pe66.oe66 (.const:ti_sysbios_knl_Semaphore_Module__loggerFxn2__C)
                  00821358    00000004     vlfft_evmc6670l_pe66.oe66 (.const:ti_sysbios_knl_Semaphore_Module__loggerFxn4__C)
                  0082135c    00000004     vlfft_evmc6670l_pe66.oe66 (.const:ti_sysbios_knl_Semaphore_Module__loggerObj__C)
                  00821360    00000004     vlfft_evmc6670l_pe66.oe66 (.const:ti_sysbios_knl_Swi_A_badPriority__C)
                  00821364    00000004     vlfft_evmc6670l_pe66.oe66 (.const:ti_sysbios_knl_Swi_LD_end__C)
                  00821368    00000004     vlfft_evmc6670l_pe66.oe66 (.const:ti_sysbios_knl_Swi_LM_begin__C)
                  0082136c    00000004     vlfft_evmc6670l_pe66.oe66 (.const:ti_sysbios_knl_Swi_LM_post__C)
                  00821370    00000004     vlfft_evmc6670l_pe66.oe66 (.const:ti_sysbios_knl_Swi_Module__diagsEnabled__C)
                  00821374    00000004     vlfft_evmc6670l_pe66.oe66 (.const:ti_sysbios_knl_Swi_Module__diagsIncluded__C)
                  00821378    00000004     vlfft_evmc6670l_pe66.oe66 (.const:ti_sysbios_knl_Swi_Module__diagsMask__C)
                  0082137c    00000004     vlfft_evmc6670l_pe66.oe66 (.const:ti_sysbios_knl_Swi_Module__loggerFxn1__C)
                  00821380    00000004     vlfft_evmc6670l_pe66.oe66 (.const:ti_sysbios_knl_Swi_Module__loggerFxn4__C)
                  00821384    00000004     vlfft_evmc6670l_pe66.oe66 (.const:ti_sysbios_knl_Swi_Module__loggerObj__C)
                  00821388    00000004     vlfft_evmc6670l_pe66.oe66 (.const:ti_sysbios_knl_Swi_Object__count__C)
                  0082138c    00000004     vlfft_evmc6670l_pe66.oe66 (.const:ti_sysbios_knl_Swi_Object__table__C)
                  00821390    00000004     vlfft_evmc6670l_pe66.oe66 (.const:ti_sysbios_knl_Task_A_badPriority__C)
                  00821394    00000004     vlfft_evmc6670l_pe66.oe66 (.const:ti_sysbios_knl_Task_A_badTaskState__C)
                  00821398    00000004     vlfft_evmc6670l_pe66.oe66 (.const:ti_sysbios_knl_Task_A_badThreadType__C)
                  0082139c    00000004     vlfft_evmc6670l_pe66.oe66 (.const:ti_sysbios_knl_Task_A_noPendElem__C)
                  008213a0    00000004     vlfft_evmc6670l_pe66.oe66 (.const:ti_sysbios_knl_Task_E_spOutOfBounds__C)
                  008213a4    00000004     vlfft_evmc6670l_pe66.oe66 (.const:ti_sysbios_knl_Task_E_stackOverflow__C)
                  008213a8    00000004     vlfft_evmc6670l_pe66.oe66 (.const:ti_sysbios_knl_Task_LD_block__C)
                  008213ac    00000004     vlfft_evmc6670l_pe66.oe66 (.const:ti_sysbios_knl_Task_LD_exit__C)
                  008213b0    00000004     vlfft_evmc6670l_pe66.oe66 (.const:ti_sysbios_knl_Task_LD_ready__C)
                  008213b4    00000004     vlfft_evmc6670l_pe66.oe66 (.const:ti_sysbios_knl_Task_LM_setPri__C)
                  008213b8    00000004     vlfft_evmc6670l_pe66.oe66 (.const:ti_sysbios_knl_Task_LM_switch__C)
                  008213bc    00000004     vlfft_evmc6670l_pe66.oe66 (.const:ti_sysbios_knl_Task_LM_yield__C)
                  008213c0    00000004     vlfft_evmc6670l_pe66.oe66 (.const:ti_sysbios_knl_Task_Module_State_inactiveQ__O)
                  008213c4    00000004     vlfft_evmc6670l_pe66.oe66 (.const:ti_sysbios_knl_Task_Module_State_terminatedQ__O)
                  008213c8    00000004     vlfft_evmc6670l_pe66.oe66 (.const:ti_sysbios_knl_Task_Module__diagsEnabled__C)
                  008213cc    00000004     vlfft_evmc6670l_pe66.oe66 (.const:ti_sysbios_knl_Task_Module__diagsIncluded__C)
                  008213d0    00000004     vlfft_evmc6670l_pe66.oe66 (.const:ti_sysbios_knl_Task_Module__diagsMask__C)
                  008213d4    00000004     vlfft_evmc6670l_pe66.oe66 (.const:ti_sysbios_knl_Task_Module__loggerFxn2__C)
                  008213d8    00000004     vlfft_evmc6670l_pe66.oe66 (.const:ti_sysbios_knl_Task_Module__loggerFxn4__C)
                  008213dc    00000004     vlfft_evmc6670l_pe66.oe66 (.const:ti_sysbios_knl_Task_Module__loggerObj__C)
                  008213e0    00000004     vlfft_evmc6670l_pe66.oe66 (.const:ti_sysbios_knl_Task_Object__count__C)
                  008213e4    00000004     vlfft_evmc6670l_pe66.oe66 (.const:ti_sysbios_knl_Task_Object__heap__C)
                  008213e8    00000004     vlfft_evmc6670l_pe66.oe66 (.const:ti_sysbios_knl_Task_Object__table__C)
                  008213ec    00000004     vlfft_evmc6670l_pe66.oe66 (.const:ti_sysbios_knl_Task_allBlockedFunc__C)
                  008213f0    00000004     vlfft_evmc6670l_pe66.oe66 (.const:ti_sysbios_knl_Task_defaultStackHeap__C)
                  008213f4    00000004     vlfft_evmc6670l_pe66.oe66 (.const:ti_sysbios_knl_Task_defaultStackSize__C)
                  008213f8    00000004     vlfft_evmc6670l_pe66.oe66 (.const:ti_sysbios_knl_Task_numConstructedTasks__C)
                  008213fc    00000004     vlfft_evmc6670l_pe66.oe66 (.const:ti_sysbios_knl_Task_numPriorities__C)
                  00821400    00000004     vlfft_evmc6670l_pe66.oe66 (.const:ti_sysbios_syncs_SyncSem_Module__diagsEnabled__C)
                  00821404    00000004     vlfft_evmc6670l_pe66.oe66 (.const:ti_sysbios_syncs_SyncSem_Module__diagsIncluded__C)
                  00821408    00000004     vlfft_evmc6670l_pe66.oe66 (.const:ti_sysbios_syncs_SyncSem_Module__diagsMask__C)
                  0082140c    00000004     vlfft_evmc6670l_pe66.oe66 (.const:ti_sysbios_timers_timer64_Timer_A_notAvailable__C)
                  00821410    00000004     vlfft_evmc6670l_pe66.oe66 (.const:ti_sysbios_timers_timer64_Timer_E_cannotSupport__C)
                  00821414    00000004     vlfft_evmc6670l_pe66.oe66 (.const:ti_sysbios_timers_timer64_Timer_Module__diagsEnabled__C)
                  00821418    00000004     vlfft_evmc6670l_pe66.oe66 (.const:ti_sysbios_timers_timer64_Timer_Module__diagsIncluded__C)
                  0082141c    00000004     vlfft_evmc6670l_pe66.oe66 (.const:ti_sysbios_timers_timer64_Timer_Module__diagsMask__C)
                  00821420    00000004     vlfft_evmc6670l_pe66.oe66 (.const:ti_sysbios_timers_timer64_Timer_anyMask__C)
                  00821424    00000004     vlfft_evmc6670l_pe66.oe66 (.const:ti_sysbios_timers_timer64_Timer_freqDivisor__C)
                  00821428    00000004     vlfft_evmc6670l_pe66.oe66 (.const:ti_sysbios_timers_timer64_Timer_numLocalTimers__C)
                  0082142c    00000004     vlfft_evmc6670l_pe66.oe66 (.const:ti_sysbios_timers_timer64_Timer_numTimerDevices__C)
                  00821430    00000004     vlfft_evmc6670l_pe66.oe66 (.const:ti_sysbios_xdcruntime_GateThreadSupport_Instance_State_gate__O)
                  00821434    00000004     vlfft_evmc6670l_pe66.oe66 (.const:xdc_runtime_Assert_E_assertFailed__C)
                  00821438    00000004     vlfft_evmc6670l_pe66.oe66 (.const:xdc_runtime_Core_A_initializedParams__C)
                  0082143c    00000004     vlfft_evmc6670l_pe66.oe66 (.const:xdc_runtime_Core_Module__diagsEnabled__C)
                  00821440    00000004     vlfft_evmc6670l_pe66.oe66 (.const:xdc_runtime_Core_Module__diagsIncluded__C)
                  00821444    00000004     vlfft_evmc6670l_pe66.oe66 (.const:xdc_runtime_Core_Module__diagsMask__C)
                  00821448    00000004     vlfft_evmc6670l_pe66.oe66 (.const:xdc_runtime_Error_E_generic__C)
                  0082144c    00000004     vlfft_evmc6670l_pe66.oe66 (.const:xdc_runtime_Error_E_memory__C)
                  00821450    00000004     vlfft_evmc6670l_pe66.oe66 (.const:xdc_runtime_Error_Module__diagsEnabled__C)
                  00821454    00000004     vlfft_evmc6670l_pe66.oe66 (.const:xdc_runtime_Error_Module__diagsIncluded__C)
                  00821458    00000004     vlfft_evmc6670l_pe66.oe66 (.const:xdc_runtime_Error_Module__diagsMask__C)
                  0082145c    00000004     vlfft_evmc6670l_pe66.oe66 (.const:xdc_runtime_Error_Module__loggerFxn8__C)
                  00821460    00000004     vlfft_evmc6670l_pe66.oe66 (.const:xdc_runtime_Error_Module__loggerObj__C)
                  00821464    00000004     vlfft_evmc6670l_pe66.oe66 (.const:xdc_runtime_Error_policy__C)
                  00821468    00000004     vlfft_evmc6670l_pe66.oe66 (.const:xdc_runtime_Error_raiseHook__C)
                  0082146c    00000004     vlfft_evmc6670l_pe66.oe66 (.const:xdc_runtime_IGateProvider_Interface__BASE__C)
                  00821470    00000004     vlfft_evmc6670l_pe66.oe66 (.const:xdc_runtime_IHeap_Interface__BASE__C)
                  00821474    00000004     vlfft_evmc6670l_pe66.oe66 (.const:xdc_runtime_IModule_Interface__BASE__C)
                  00821478    00000004     vlfft_evmc6670l_pe66.oe66 (.const:xdc_runtime_Log_L_error__C)
                  0082147c    00000004     vlfft_evmc6670l_pe66.oe66 (.const:xdc_runtime_Memory_defaultHeapInstance__C)
                  00821480    00000004     vlfft_evmc6670l_pe66.oe66 (.const:xdc_runtime_Startup_execImpl__C)
                  00821484    00000004     vlfft_evmc6670l_pe66.oe66 (.const:xdc_runtime_Startup_maxPasses__C)
                  00821488    00000004     vlfft_evmc6670l_pe66.oe66 (.const:xdc_runtime_Startup_sfxnRts__C)
                  0082148c    00000004     vlfft_evmc6670l_pe66.oe66 (.const:xdc_runtime_Startup_sfxnTab__C)
                  00821490    00000004     vlfft_evmc6670l_pe66.oe66 (.const:xdc_runtime_Startup_lastFxns__A)
                  00821494    00000004     vlfft_evmc6670l_pe66.oe66 (.const:xdc_runtime_Startup_startModsFxn__C)
                  00821498    00000004     vlfft_evmc6670l_pe66.oe66 (.const:xdc_runtime_System_Module__gateObj__C)
                  0082149c    00000004     vlfft_evmc6670l_pe66.oe66 (.const:xdc_runtime_System_extendFxn__C)
                  008214a0    00000004     vlfft_evmc6670l_pe66.oe66 (.const:xdc_runtime_System_maxAtexitHandlers__C)
                  008214a4    00000004     vlfft_evmc6670l_pe66.oe66 (.const:xdc_runtime_Text_charTab__C)
                  008214a8    00000004     vlfft_evmc6670l_pe66.oe66 (.const:xdc_runtime_Text_nameEmpty__C)
                  008214ac    00000004     vlfft_evmc6670l_pe66.oe66 (.const:xdc_runtime_Text_nameStatic__C)
                  008214b0    00000004     vlfft_evmc6670l_pe66.oe66 (.const:xdc_runtime_Text_nameUnknown__C)
                  008214b4    00000004     vlfft_evmc6670l_pe66.oe66 (.const:xdc_runtime_Text_nodeTab__C)
                  008214b8    00000004     vlfft_evmc6670l_pe66.oe66 (.const:xdc_runtime_Text_visitRopeFxn__C)
                  008214bc    00000004     vlfft_evmc6670l_pe66.oe66 (.const:xdc_runtime_knl_ISync_Interface__BASE__C)
                  008214c0    00000002     vlfft_evmc6670l_pe66.oe66 (.const:ti_sdo_ipc_GateMP_Module__id__C)
                  008214c2    00000002     --HOLE-- [fill = 0]
                  008214c4    00000002     vlfft_evmc6670l_pe66.oe66 (.const:ti_sdo_ipc_GateMP_Module__loggerDefined__C)
                  008214c6    00000002     --HOLE-- [fill = 0]
                  008214c8    00000002     vlfft_evmc6670l_pe66.oe66 (.const:ti_sdo_ipc_Ipc_Module__id__C)
                  008214ca    00000002     --HOLE-- [fill = 0]
                  008214cc    00000002     vlfft_evmc6670l_pe66.oe66 (.const:ti_sdo_ipc_Ipc_generateSlaveDataForHost__C)
                  008214ce    00000002     --HOLE-- [fill = 0]
                  008214d0    00000002     vlfft_evmc6670l_pe66.oe66 (.const:ti_sdo_ipc_ListMP_Module__id__C)
                  008214d2    00000002     --HOLE-- [fill = 0]
                  008214d4    00000002     vlfft_evmc6670l_pe66.oe66 (.const:ti_sdo_ipc_MessageQ_Module__id__C)
                  008214d6    00000002     --HOLE-- [fill = 0]
                  008214d8    00000002     vlfft_evmc6670l_pe66.oe66 (.const:ti_sdo_ipc_MessageQ_Module__loggerDefined__C)
                  008214da    00000002     --HOLE-- [fill = 0]
                  008214dc    00000002     vlfft_evmc6670l_pe66.oe66 (.const:ti_sdo_ipc_Notify_Module__id__C)
                  008214de    00000002     --HOLE-- [fill = 0]
                  008214e0    00000002     vlfft_evmc6670l_pe66.oe66 (.const:ti_sdo_ipc_Notify_numLines__C)
                  008214e2    00000002     --HOLE-- [fill = 0]
                  008214e4    00000002     vlfft_evmc6670l_pe66.oe66 (.const:ti_sdo_ipc_Notify_reservedEvents__C)
                  008214e6    00000002     --HOLE-- [fill = 0]
                  008214e8    00000002     vlfft_evmc6670l_pe66.oe66 (.const:ti_sdo_ipc_SharedRegion_Module__id__C)
                  008214ea    00000002     --HOLE-- [fill = 0]
                  008214ec    00000002     vlfft_evmc6670l_pe66.oe66 (.const:ti_sdo_ipc_SharedRegion_numEntries__C)
                  008214ee    00000002     --HOLE-- [fill = 0]
                  008214f0    00000002     vlfft_evmc6670l_pe66.oe66 (.const:ti_sdo_ipc_SharedRegion_translate__C)
                  008214f2    00000002     --HOLE-- [fill = 0]
                  008214f4    00000002     vlfft_evmc6670l_pe66.oe66 (.const:ti_sdo_ipc_family_c647x_Interrupt_enableKick__C)
                  008214f6    00000002     --HOLE-- [fill = 0]
                  008214f8    00000002     vlfft_evmc6670l_pe66.oe66 (.const:ti_sdo_ipc_family_c647x_MultiProcSetup_Module__id__C)
                  008214fa    00000002     --HOLE-- [fill = 0]
                  008214fc    00000002     vlfft_evmc6670l_pe66.oe66 (.const:ti_sdo_ipc_gates_GateHWSem_Module__id__C)
                  008214fe    00000002     --HOLE-- [fill = 0]
                  00821500    00000002     vlfft_evmc6670l_pe66.oe66 (.const:ti_sdo_ipc_gates_GateMPSupportNull_Module__id__C)
                  00821502    00000002     --HOLE-- [fill = 0]
                  00821504    00000002     vlfft_evmc6670l_pe66.oe66 (.const:ti_sdo_ipc_gates_GatePeterson_Module__id__C)
                  00821506    00000002     --HOLE-- [fill = 0]
                  00821508    00000002     vlfft_evmc6670l_pe66.oe66 (.const:ti_sdo_ipc_heaps_HeapBufMP_Module__id__C)
                  0082150a    00000002     --HOLE-- [fill = 0]
                  0082150c    00000002     vlfft_evmc6670l_pe66.oe66 (.const:ti_sdo_ipc_heaps_HeapBufMP_trackAllocs__C)
                  0082150e    00000002     --HOLE-- [fill = 0]
                  00821510    00000002     vlfft_evmc6670l_pe66.oe66 (.const:ti_sdo_ipc_heaps_HeapMemMP_Module__id__C)
                  00821512    00000002     --HOLE-- [fill = 0]
                  00821514    00000002     vlfft_evmc6670l_pe66.oe66 (.const:ti_sdo_ipc_notifyDrivers_NotifyDriverCirc_Module__id__C)
                  00821516    00000002     --HOLE-- [fill = 0]
                  00821518    00000002     vlfft_evmc6670l_pe66.oe66 (.const:ti_sdo_ipc_notifyDrivers_NotifyDriverCirc_enableStats__C)
                  0082151a    00000002     --HOLE-- [fill = 0]
                  0082151c    00000002     vlfft_evmc6670l_pe66.oe66 (.const:ti_sdo_ipc_nsremote_NameServerRemoteNotify_Module__id__C)
                  0082151e    00000002     --HOLE-- [fill = 0]
                  00821520    00000002     vlfft_evmc6670l_pe66.oe66 (.const:ti_sdo_ipc_transports_TransportShmNotify_alwaysWriteBackMsg__C)
                  00821522    00000002     --HOLE-- [fill = 0]
                  00821524    00000002     vlfft_evmc6670l_pe66.oe66 (.const:ti_sdo_ipc_transports_TransportShmNotify_notifyEventId__C)
                  00821526    00000002     --HOLE-- [fill = 0]
                  00821528    00000002     vlfft_evmc6670l_pe66.oe66 (.const:ti_sdo_utils_MultiProc_Module__id__C)
                  0082152a    00000002     --HOLE-- [fill = 0]
                  0082152c    00000002     vlfft_evmc6670l_pe66.oe66 (.const:ti_sdo_utils_MultiProc_numProcessors__C)
                  0082152e    00000002     --HOLE-- [fill = 0]
                  00821530    00000002     vlfft_evmc6670l_pe66.oe66 (.const:ti_sdo_utils_MultiProc_numProcsInCluster__C)
                  00821532    00000002     --HOLE-- [fill = 0]
                  00821534    00000002     vlfft_evmc6670l_pe66.oe66 (.const:ti_sdo_utils_NameServer_Module__id__C)
                  00821536    00000002     --HOLE-- [fill = 0]
                  00821538    00000002     vlfft_evmc6670l_pe66.oe66 (.const:ti_sdo_utils_NameServer_singleProcessor__C)
                  0082153a    00000002     --HOLE-- [fill = 0]
                  0082153c    00000002     vlfft_evmc6670l_pe66.oe66 (.const:ti_sysbios_BIOS_Module__id__C)
                  0082153e    00000002     --HOLE-- [fill = 0]
                  00821540    00000002     vlfft_evmc6670l_pe66.oe66 (.const:ti_sysbios_family_c64p_EventCombiner_Module__id__C)
                  00821542    00000002     --HOLE-- [fill = 0]
                  00821544    00000002     vlfft_evmc6670l_pe66.oe66 (.const:ti_sysbios_family_c64p_Exception_Module__id__C)
                  00821546    00000002     --HOLE-- [fill = 0]
                  00821548    00000002     vlfft_evmc6670l_pe66.oe66 (.const:ti_sysbios_family_c64p_Hwi_Module__id__C)
                  0082154a    00000002     --HOLE-- [fill = 0]
                  0082154c    00000002     vlfft_evmc6670l_pe66.oe66 (.const:ti_sysbios_family_c64p_Hwi_Module__loggerDefined__C)
                  0082154e    00000002     --HOLE-- [fill = 0]
                  00821550    00000002     vlfft_evmc6670l_pe66.oe66 (.const:ti_sysbios_family_c66_tci66xx_CpIntc_Module__id__C)
                  00821552    00000002     --HOLE-- [fill = 0]
                  00821554    00000002     vlfft_evmc6670l_pe66.oe66 (.const:ti_sysbios_gates_GateMutexPri_Module__id__C)
                  00821556    00000002     --HOLE-- [fill = 0]
                  00821558    00000002     vlfft_evmc6670l_pe66.oe66 (.const:ti_sysbios_gates_GateMutex_Module__id__C)
                  0082155a    00000002     --HOLE-- [fill = 0]
                  0082155c    00000002     vlfft_evmc6670l_pe66.oe66 (.const:ti_sysbios_gates_GateSwi_Module__id__C)
                  0082155e    00000002     --HOLE-- [fill = 0]
                  00821560    00000002     vlfft_evmc6670l_pe66.oe66 (.const:ti_sysbios_hal_Hwi_Module__id__C)
                  00821562    00000002     --HOLE-- [fill = 0]
                  00821564    00000002     vlfft_evmc6670l_pe66.oe66 (.const:ti_sysbios_heaps_HeapMem_Module__id__C)
                  00821566    00000002     --HOLE-- [fill = 0]
                  00821568    00000002     vlfft_evmc6670l_pe66.oe66 (.const:ti_sysbios_knl_Clock_Module__id__C)
                  0082156a    00000002     --HOLE-- [fill = 0]
                  0082156c    00000002     vlfft_evmc6670l_pe66.oe66 (.const:ti_sysbios_knl_Clock_Module__loggerDefined__C)
                  0082156e    00000002     --HOLE-- [fill = 0]
                  00821570    00000002     vlfft_evmc6670l_pe66.oe66 (.const:ti_sysbios_knl_Semaphore_Module__id__C)
                  00821572    00000002     --HOLE-- [fill = 0]
                  00821574    00000002     vlfft_evmc6670l_pe66.oe66 (.const:ti_sysbios_knl_Semaphore_Module__loggerDefined__C)
                  00821576    00000002     --HOLE-- [fill = 0]
                  00821578    00000002     vlfft_evmc6670l_pe66.oe66 (.const:ti_sysbios_knl_Swi_Module__id__C)
                  0082157a    00000002     --HOLE-- [fill = 0]
                  0082157c    00000002     vlfft_evmc6670l_pe66.oe66 (.const:ti_sysbios_knl_Swi_Module__loggerDefined__C)
                  0082157e    00000002     --HOLE-- [fill = 0]
                  00821580    00000002     vlfft_evmc6670l_pe66.oe66 (.const:ti_sysbios_knl_Task_Module__id__C)
                  00821582    00000002     --HOLE-- [fill = 0]
                  00821584    00000002     vlfft_evmc6670l_pe66.oe66 (.const:ti_sysbios_knl_Task_Module__loggerDefined__C)
                  00821586    00000002     --HOLE-- [fill = 0]
                  00821588    00000002     vlfft_evmc6670l_pe66.oe66 (.const:ti_sysbios_knl_Task_deleteTerminatedTasks__C)
                  0082158a    00000002     --HOLE-- [fill = 0]
                  0082158c    00000002     vlfft_evmc6670l_pe66.oe66 (.const:ti_sysbios_knl_Task_initStackFlag__C)
                  0082158e    00000002     --HOLE-- [fill = 0]
                  00821590    00000002     vlfft_evmc6670l_pe66.oe66 (.const:ti_sysbios_syncs_SyncSem_Module__id__C)
                  00821592    00000002     --HOLE-- [fill = 0]
                  00821594    00000002     vlfft_evmc6670l_pe66.oe66 (.const:ti_sysbios_timers_timer64_Timer_Module__id__C)
                  00821596    00000002     --HOLE-- [fill = 0]
                  00821598    00000002     vlfft_evmc6670l_pe66.oe66 (.const:ti_sysbios_timers_timer64_Timer_startupNeeded__C)
                  0082159a    00000002     --HOLE-- [fill = 0]
                  0082159c    00000002     vlfft_evmc6670l_pe66.oe66 (.const:xdc_runtime_Core_Module__id__C)
                  0082159e    00000002     --HOLE-- [fill = 0]
                  008215a0    00000002     vlfft_evmc6670l_pe66.oe66 (.const:xdc_runtime_Error_Module__loggerDefined__C)
                  008215a2    00000002     --HOLE-- [fill = 0]
                  008215a4    00000002     vlfft_evmc6670l_pe66.oe66 (.const:xdc_runtime_Error_maxDepth__C)
                  008215a6    00000002     --HOLE-- [fill = 0]
                  008215a8    00000002     vlfft_evmc6670l_pe66.oe66 (.const:xdc_runtime_Main_Module__id__C)
                  008215aa    00000002     --HOLE-- [fill = 0]
                  008215ac    00000002     vlfft_evmc6670l_pe66.oe66 (.const:xdc_runtime_Memory_Module__id__C)
                  008215ae    00000002     --HOLE-- [fill = 0]
                  008215b0    00000002     vlfft_evmc6670l_pe66.oe66 (.const:xdc_runtime_Text_charCnt__C)
                  008215b2    00000002     --HOLE-- [fill = 0]
                  008215b4    00000002     vlfft_evmc6670l_pe66.oe66 (.const:xdc_runtime_Text_isLoaded__C)
                  008215b6    00000002     --HOLE-- [fill = 0]
                  008215b8    00000002     vlfft_evmc6670l_pe66.oe66 (.const:xdc_runtime_Text_registryModsLastId__C)
                  008215ba    00000002     --HOLE-- [fill = 0]
                  008215bc    00000002     vlfft_evmc6670l_pe66.oe66 (.const:xdc_runtime_Text_unnamedModsLastId__C)

.stack     0    008215c0    00001000     UNINITIALIZED
                  008215c0    00000008     boot.ae66 : boot.oe66 (.stack)
                  008215c8    00000ff8     --HOLE--

.cio       0    008225c0    00000120     UNINITIALIZED
                  008225c0    00000120     rts6600_elf.lib : trgmsg.obj (.cio)

.switch    0    008226e0    000000d0     
                  008226e0    00000078     stm_d.c66xx_elf.lib : StmLibrary.obj (.switch:STM_printfV)
                  00822758    00000014     edma3_lld_drv_sample.ae66 : sample_cs.oe66 (.switch:edma3OsProtectEntry)
                  0082276c    00000014                               : sample_cs.oe66 (.switch:edma3OsProtectExit)
                  00822780    00000010     edma3_lld_rm.ae66 : edma3resmgr.oe66 (.switch:EDMA3_RM_allocResource)
                  00822790    00000010                       : edma3resmgr.oe66 (.switch:EDMA3_RM_freeResource)
                  008227a0    00000010     ipc.lib : Ipc.obj (.switch:ti_sdo_ipc_GateMP_Instance_finalize__F)

.bss       0    008227b0    00000010     UNINITIALIZED
                  008227b0    00000008     edma3_lld_drv_sample.ae66 : sample_init.oe66 (.bss)
                  008227b8    00000004     system_trace.obj (.bss)
                  008227bc    00000004     vlfft_evmc6670l_pe66.oe66 (.bss)

.neardata 
*          0    008227c0    00000032     
                  008227c0    00000010     edma3_lld_rm.ae66 : edma3_rm_gbl_data.oe66 (.neardata)
                  008227d0    0000000c     edma3_lld_drv_sample.ae66 : sample_c6678_int_reg.oe66 (.neardata)
                  008227dc    0000000a     edma3_lld_rm.ae66 : edma3resmgr.oe66 (.neardata)
                  008227e6    00000002     --HOLE-- [fill = 0]
                  008227e8    00000008     stm_d.c66xx_elf.lib : StmLibrary.obj (.neardata)
                  008227f0    00000002     edma3_lld_drv.ae66 : edma3_drv_init.oe66 (.neardata)

.rodata    0    008227f4    00000008     
                  008227f4    00000004     edma3_lld_drv_sample.ae66 : sample_c6678_cfg.oe66 (.rodata)
                  008227f8    00000004     edma3_lld_rm.ae66 : edma3_rm_gbl_data.oe66 (.rodata)

.cinit     0    008227fc    000028c4     
                  008227fc    000020f0     (.cinit..fardata.1.load) [load image, compression = rle]
                  008248ec    00000338     (.cinit..fardata.5.load) [load image, compression = rle]
                  00824c24    00000230     (.cinit..fardata.2.load) [load image, compression = rle]
                  00824e54    00000050     (.cinit..fardata.8.load) [load image, compression = rle]
                  00824ea4    0000004c     (.cinit..fardata.3.load) [load image, compression = rle]
                  00824ef0    00000022     (.cinit..neardata.load) [load image, compression = rle]
                  00824f12    00000002     --HOLE-- [fill = 0]
                  00824f14    00000017     (.cinit..fardata.7.load) [load image, compression = rle]
                  00824f2b    00000001     --HOLE-- [fill = 0]
                  00824f2c    00000016     (.cinit..fardata.6.load) [load image, compression = rle]
                  00824f42    00000002     --HOLE-- [fill = 0]
                  00824f44    0000000e     (.cinit..rodata.load) [load image, compression = rle]
                  00824f52    00000002     --HOLE-- [fill = 0]
                  00824f54    0000000d     (.cinit..fardata.9.load) [load image, compression = rle]
                  00824f61    00000003     --HOLE-- [fill = 0]
                  00824f64    0000000c     (__TI_handler_table)
                  00824f70    0000000a     (.cinit..fardata.15.load) [load image, compression = rle]
                  00824f7a    00000002     --HOLE-- [fill = 0]
                  00824f7c    0000000a     (.cinit..fardata.16.load) [load image, compression = rle]
                  00824f86    00000002     --HOLE-- [fill = 0]
                  00824f88    00000009     (.cinit..fardata.10.load) [load image, compression = rle]
                  00824f91    00000003     --HOLE-- [fill = 0]
                  00824f94    00000009     (.cinit..fardata.11.load) [load image, compression = rle]
                  00824f9d    00000003     --HOLE-- [fill = 0]
                  00824fa0    00000009     (.cinit..fardata.12.load) [load image, compression = rle]
                  00824fa9    00000003     --HOLE-- [fill = 0]
                  00824fac    00000009     (.cinit..fardata.13.load) [load image, compression = rle]
                  00824fb5    00000003     --HOLE-- [fill = 0]
                  00824fb8    00000009     (.cinit..fardata.14.load) [load image, compression = rle]
                  00824fc1    00000003     --HOLE-- [fill = 0]
                  00824fc4    00000009     (.cinit..fardata.4.load) [load image, compression = rle]
                  00824fcd    00000003     --HOLE-- [fill = 0]
                  00824fd0    00000008     (.cinit..bss.load) [load image, compression = zero_init]
                  00824fd8    00000008     (.cinit..externalMEM.load) [load image, compression = zero_init]
                  00824fe0    00000008     (.cinit..far.1.load) [load image, compression = zero_init]
                  00824fe8    00000008     (.cinit..far.2.load) [load image, compression = zero_init]
                  00824ff0    00000008     (.cinit..far.3.load) [load image, compression = zero_init]
                  00824ff8    00000008     (.cinit..internalMEM.load) [load image, compression = zero_init]
                  00825000    000000c0     (__TI_cinit_table)

.internalMEM 
*          0    00826000    0005a000     UNINITIALIZED
                  00826000    0005a000     vlfftApps.obj (.internalMEM)

ti.sdo.ipc.SharedRegion_0 
*          0    0c000000    00200000     NOLOAD SECTION
                  0c000000    00200000     --HOLE--

.externalMEM 
*          0    80200000    02000000     UNINITIALIZED
                  80200000    02000000     vlfftApps.obj (.externalMEM)

.text      0    82200000    0003a9e0     
                  82200000    00001b40     stm_d.c66xx_elf.lib : StmLibrary.obj (.text:STMLibraryFast)
                  82201b40    00001240     genTestData.obj (.text)
                  82202d80    00001220     ipc.lib : Ipc.obj (.text:ti_sdo_ipc_GateMP_Instance_init__F)
                  82203fa0    00000da0     stm_d.c66xx_elf.lib : StmLibrary.obj (.text)
                  82204d40    00000c40     edma3_lld_drv.ae66 : edma3_drv_basic.oe66 (.text:EDMA3_DRV_requestChannel)
                  82205980    00000b40     edma3_lld_rm.ae66 : edma3resmgr.oe66 (.text:EDMA3_RM_allocResource)
                  822064c0    00000a80     vlfftApps.obj (.text)
                  82206f40    00000a60     ipc.lib : Ipc.obj (.text:ti_sdo_ipc_heaps_HeapMemMP_alloc__E)
                  822079a0    000009e0             : Ipc.obj (.text:ti_sdo_ipc_heaps_HeapMemMP_free__E)
                  82208380    000009a0             : Ipc.obj (.text:Ipc_attach)
                  82208d20    000009a0     ti.targets.rts6000.ae66 : System.oe66 (.text:xdc_runtime_System_doPrint__I)
                  822096c0    00000880     ipc.lib : Ipc.obj (.text:ti_sdo_ipc_ListMP_Instance_init__F)
                  82209f40    00000860             : Ipc.obj (.text:ti_sdo_ipc_GateMP_Instance_finalize__F)
                  8220a7a0    00000860     vlfft_1stIter.obj (.text)
                  8220b000    00000840     ipc.lib : Ipc.obj (.text:MessageQ_put)
                  8220b840    00000820             : Ipc.obj (.text:ti_sdo_ipc_heaps_HeapBufMP_Instance_init__F)
                  8220c060    00000800             : Ipc.obj (.text:ti_sdo_ipc_heaps_HeapBufMP_postInit__I)
                  8220c860    00000780             : Ipc.obj (.text:ti_sdo_ipc_heaps_HeapMemMP_Instance_init__F)
                  8220cfe0    00000780     sysbios.lib : BIOS.obj (.text:ti_sysbios_family_c64p_Exception_handler__I)
                  8220d760    00000740     vlfftEdmaConfig.obj (.text)
                  8220dea0    000006c0     stm_d.c66xx_elf.lib : StmLibrary.obj (.text:STMLibrarySlow)
                  8220e560    000006c0     edma3_lld_rm.ae66 : edma3resmgr.oe66 (.text:edma3CCErrHandler)
                  8220ec20    000006c0     ipc.lib : Ipc.obj (.text:ti_sdo_ipc_nsremote_NameServerRemoteNotify_Instance_init__F)
                  8220f2e0    000006a0             : Ipc.obj (.text:NameServer_add)
                  8220f980    00000660     sysbios.lib : BIOS.obj (.text:ti_sysbios_heaps_HeapMem_free__E)
                  8220ffe0    00000620     ipc.lib : Ipc.obj (.text:Notify_sendEvent)
                  82210600    00000620     sysbios.lib : BIOS.obj (.text:ti_sysbios_heaps_HeapMem_alloc__E)
                  82210c20    00000600     edma3_lld_rm.ae66 : edma3resmgr.oe66 (.text:EDMA3_RM_open)
                  82211220    000005e0     ipc.lib : Ipc.obj (.text:Notify_registerEventSingle)
                  82211800    000005c0             : Ipc.obj (.text:ListMP_getHead)
                  82211dc0    000005c0             : Ipc.obj (.text:Notify_unregisterEventSingle)
                  82212380    000005c0     rts6600_elf.lib : divd.obj (.text:__c6xabi_divd)
                  82212940    000005c0                     : _printfi.obj (.text:_getarg_diouxp)
                  82212f00    000005c0     ipc.lib : Ipc.obj (.text:ti_sdo_ipc_SharedRegion_start__F)
                  822134c0    000005c0     vlfft_2ndIter.obj (.text)
                  82213a80    000005a0     sysbios.lib : BIOS.obj (.text:ti_sysbios_timers_timer64_Timer_Module_startup__F)
                  82214020    00000580     ipc.lib : Ipc.obj (.text:ti_sdo_ipc_nsremote_NameServerRemoteNotify_get__F)
                  822145a0    00000560             : Ipc.obj (.text:NameServer_get)
                  82214b00    00000540     messgQUtil.obj (.text)
                  82215040    00000540     ipc.lib : Ipc.obj (.text:ti_sdo_ipc_Ipc_procSyncStart__I)
                  82215580    00000500     sysbios.lib : BIOS.obj (.text:ti_sysbios_knl_Task_Instance_finalize__F)
                  82215a80    000004e0     DSPF_sp_mixedRadix_fftSPXSP.obj (.text)
                  82215f60    000004e0     dmaParamInit.obj (.text)
                  82216440    000004e0     ipc.lib : Ipc.obj (.text:ti_sdo_ipc_notifyDrivers_NotifyDriverCirc_Instance_init__F)
                  82216920    000004a0             : Ipc.obj (.text:HeapBufMP_sharedMemReq)
                  82216dc0    000004a0             : Ipc.obj (.text:ti_sdo_ipc_gates_GatePeterson_Instance_init__F)
                  82217260    000004a0             : Ipc.obj (.text:ti_sdo_ipc_nsremote_NameServerRemoteNotify_swiFxn__I)
                  82217700    00000480     rts6600_elf.lib : _printfi.obj (.text:_setfield)
                  82217b80    00000480     sysbios.lib : BIOS.obj (.text:ti_sysbios_knl_Task_Module_startup__F)
                  82218000    00000460     rts6600_elf.lib : _printfi.obj (.text:_printfi)
                  82218460    00000460     ipc.lib : Ipc.obj (.text:ti_sdo_ipc_GateMP_setRegion0Reserved__F)
                  822188c0    00000460             : Ipc.obj (.text:ti_sdo_ipc_Ipc_procSyncFinish__I)
                  82218d20    00000460             : Ipc.obj (.text:ti_sdo_ipc_MessageQ_Instance_init__F)
                  82219180    00000440             : Ipc.obj (.text:ListMP_putTail)
                  822195c0    00000440     edma3_lld_rm.ae66 : edma3resmgr.oe66 (.text:edma3TCErrHandler)
                  82219a00    00000440     ipc.lib : Ipc.obj (.text:ti_sdo_ipc_heaps_HeapMemMP_getStats__E)
                  82219e40    00000440             : Ipc.obj (.text:ti_sdo_ipc_heaps_HeapMemMP_postInit__I)
                  8221a280    00000420     edma3_lld_rm.ae66 : edma3resmgr.oe66 (.text:EDMA3_RM_freeResource)
                  8221a6a0    00000400     ipc.lib : Ipc.obj (.text:ti_sdo_ipc_Notify_Instance_init__F)
                  8221aaa0    00000400     sysbios.lib : BIOS.obj (.text:ti_sysbios_knl_Semaphore_pend__E)
                  8221aea0    000003c0     ipc.lib : Ipc.obj (.text:ti_sdo_ipc_SharedRegion_reserveMemory__F)
                  8221b260    000003c0     sysbios.lib : BIOS.obj (.text:ti_sysbios_knl_Swi_schedule__I)
                  8221b620    000003c0                 : BIOS.obj (.text:ti_sysbios_knl_Task_Instance_init__F)
                  8221b9e0    000003c0                 : BIOS.obj (.text:ti_sysbios_knl_Task_setPri__E)
                  8221bda0    000003a0     edma3_lld_rm.ae66 : edma3resmgr.oe66 (.text:EDMA3_RM_create)
                  8221c140    00000380     ipc.lib : Ipc.obj (.text:HeapMemMP_sharedMemReq)
                  8221c4c0    00000380             : Ipc.obj (.text:MessageQ_alloc)
                  8221c840    00000360     vlfft_evmc6670l_pe66.oe66 (.text:xdc_runtime_System_printfExtend__I)
                  8221cba0    00000340     ipc.lib : Ipc.obj (.text:GateMP_sharedMemReq)
                  8221cee0    00000340     sysbios.lib : BIOS.obj (.text:ti_sysbios_knl_Swi_restoreHwi__E)
                  8221d220    00000320     DSPF_sp_radix4_fftSPxSP.obj (.text)
                  8221d540    00000320     ipc.lib : Ipc.obj (.text:HeapBufMP_open)
                  8221d860    00000300     edma3_lld_drv.ae66 : edma3_drv_basic.oe66 (.text:EDMA3_DRV_freeChannel)
                  8221db60    00000300     rts6600_elf.lib : fputs.obj (.text:fputs)
                  8221de60    00000300     sysbios.lib : BIOS.obj (.text:ti_sysbios_family_c64p_Hwi_dispatchC__I)
                  8221e160    00000300     vlfftUtil.obj (.text)
                  8221e460    000002e0     ipc.lib : Ipc.obj (.text:GateMP_openByAddr)
                  8221e740    000002e0             : Ipc.obj (.text:SharedRegion_getEntry)
                  8221ea20    000002e0             : Ipc.obj (.text:SharedRegion_getPtr)
                  8221ed00    000002e0     rts6600_elf.lib : _printfi.obj (.text:_pproc_fwp)
                  8221efe0    000002e0     ipc.lib : Ipc.obj (.text:ti_sdo_ipc_heaps_HeapBufMP_free__E)
                  8221f2c0    000002e0             : Ipc.obj (.text:ti_sdo_ipc_notifyDrivers_NotifyDriverCirc_isr__I)
                  8221f5a0    000002e0     sysbios.lib : BIOS.obj (.text:ti_sysbios_gates_GateMutexPri_enter__E)
                  8221f880    000002c0     ipc.lib : Ipc.obj (.text:MessageQ_open)
                  8221fb40    000002c0     rts6600_elf.lib : _printfi.obj (.text:_pproc_fge)
                  8221fe00    000002c0                     : cos.obj (.text:cos)
                  822200c0    000002a0     edma3_lld_drv.ae66 : edma3_drv_init.oe66 (.text:EDMA3_DRV_create)
                  82220360    000002a0                        : edma3_drv_basic.oe66 (.text:EDMA3_DRV_disableTransfer)
                  82220600    000002a0                        : edma3_drv_init.oe66 (.text:EDMA3_DRV_open)
                  822208a0    000002a0     ipc.lib : Ipc.obj (.text:Ipc_start)
                  82220b40    000002a0             : Ipc.obj (.text:NameServer_getLocal)
                  82220de0    000002a0     edma3_lld_rm.ae66 : edma3resmgr.oe66 (.text:edma3ComplHandler)
                  82221080    000002a0     edma3_lld_drv.ae66 : edma3_drv_init.oe66 (.text:edma3OpenResMgr)
                  82221320    000002a0                        : edma3_drv_basic.oe66 (.text:edma3RemoveMapping)
                  822215c0    000002a0     rts6600_elf.lib : _printfi.obj (.text:fcvt)
                  82221860    000002a0     ipc.lib : Ipc.obj (.text:ti_sdo_ipc_heaps_HeapBufMP_Instance_finalize__F)
                  82221b00    000002a0     sysbios.lib : BIOS.obj (.text:ti_sysbios_family_c66_tci66xx_CpIntc_Module_startup__F)
                  82221da0    000002a0                 : BIOS.obj (.text:ti_sysbios_knl_Clock_workFunc__E)
                  82222040    00000280     ipc.lib : Ipc.obj (.text:SharedRegion_getSRPtr)
                  822222c0    00000280     sysbios.lib : BIOS.obj (.text:deviceConfig$44)
                  82222540    00000280     rts6600_elf.lib : _printfi.obj (.text:ecvt)
                  822227c0    00000280     multTwiddle.obj (.text)
                  82222a40    00000280     rts6600_elf.lib : sin.obj (.text:sin)
                  82222cc0    00000280     ipc.lib : Ipc.obj (.text:ti_sdo_ipc_notifyDrivers_NotifyDriverCirc_sharedMemReq__F)
                  82222f40    00000280     sysbios.lib : BIOS.obj (.text:ti_sysbios_knl_Clock_Instance_init__F)
                  822231c0    00000280                 : BIOS.obj (.text:ti_sysbios_knl_Task_exit__E)
                  82223440    00000280     ti.targets.rts6000.ae66 : Core-mem.oe66 (.text:xdc_runtime_Core_createObject__I)
                  822236c0    00000280                             : Error.oe66 (.text:xdc_runtime_Error_raiseX__F)
                  82223940    00000260     edma3_lld_drv.ae66 : edma3_drv_basic.oe66 (.text:EDMA3_DRV_enableTransfer)
                  82223ba0    00000260     ipc.lib : Ipc.obj (.text:ListMP_sharedMemReq)
                  82223e00    00000260     edma3_lld_drv_sample.ae66 : sample_c6678_int_reg.oe66 (.text:registerEdma3Interrupts)
                  82224060    00000260     ipc.lib : Ipc.obj (.text:ti_sdo_ipc_ListMP_Instance_finalize__F)
                  822242c0    00000260             : Ipc.obj (.text:ti_sdo_ipc_heaps_HeapMemMP_Instance_finalize__F)
                  82224520    00000260     ti.targets.rts6000.ae66 : Startup.oe66 (.text:xdc_runtime_Startup_startMods__I)
                  82224780    00000240     edma3_lld_drv.ae66 : edma3_drv_basic.oe66 (.text:EDMA3_DRV_setDestParams)
                  822249c0    00000240                        : edma3_drv_basic.oe66 (.text:EDMA3_DRV_setSrcParams)
                  82224c00    00000240     rts6600_elf.lib : imath64.obj (.text:__c6xabi_divull)
                  82224e40    00000240                     : _printfi.obj (.text:_pconv_e)
                  82225080    00000240                     : _printfi.obj (.text:_pproc_diouxp)
                  822252c0    00000240     ipc.lib : Ipc.obj (.text:ti_sdo_ipc_MessageQ_Instance_finalize__F)
                  82225500    00000240             : Ipc.obj (.text:ti_sdo_ipc_notifyDrivers_NotifyDriverCirc_sendEvent__E)
                  82225740    00000240     sysbios.lib : BIOS.obj (.text:ti_sysbios_family_c64p_Exception_internalHandler__I)
                  82225980    00000220     ipc.lib : Ipc.obj (.text:MessageQ_get)
                  82225ba0    00000220             : Ipc.obj (.text:MultiProc_getId)
                  82225dc0    00000220     rts6600_elf.lib : _printfi.obj (.text:_pproc_str)
                  82225fe0    00000220     sysbios.lib : BIOS.obj (.text:ti_sysbios_knl_Task_schedule__I)
                  82226200    00000220                 : BIOS.obj (.text:ti_sysbios_knl_Task_startup__E)
                  82226420    00000200     ipc.lib : Ipc.obj (.text:GateMP_enter)
                  82226620    00000200             : Ipc.obj (.text:GateMP_leave)
                  82226820    00000200             : Ipc.obj (.text:ListMP_openByAddr)
                  82226a20    00000200     rts6600_elf.lib : _printfi.obj (.text:_pconv_g)
                  82226c20    00000200     sysbios.lib : c64p_Hwi_disp_always.obj (.text:_ti_sysbios_family_c64p_Hwi_dispatchAlways)
                  82226e20    00000200                 : BIOS.obj (.text:block$54)
                  82227020    00000200     edma3_lld_rm.ae66 : edma3resmgr.oe66 (.text:edma3ShadowRegionInit)
                  82227220    00000200     genTwiddle.obj (.text)
                  82227420    00000200     ipc.lib : Ipc.obj (.text:ti_sdo_ipc_family_c647x_MultiProcSetup_init__I)
                  82227620    00000200             : Ipc.obj (.text:ti_sdo_ipc_heaps_HeapBufMP_alloc__E)
                  82227820    000001e0     edma3_lld_drv_sample.ae66 : sample_init.oe66 (.text:edma3init)
                  82227a00    000001e0     ipc.lib : Ipc.obj (.text:ti_sdo_ipc_GateMP_attach__F)
                  82227be0    000001e0             : Ipc.obj (.text:ti_sdo_ipc_GateMP_getFreeResource__I)
                  82227dc0    000001e0     sysbios.lib : BIOS.obj (.text:ti_sysbios_knl_Task_postInit__I)
                  82227fa0    000001e0                 : BIOS.obj (.text:ti_sysbios_timers_timer64_Timer_getFreq__E)
                  82228180    000001c0     ipc.lib : Ipc.obj (.text:HeapBufMP_openByAddr)
                  82228340    000001c0             : Ipc.obj (.text:HeapMemMP_openByAddr)
                  82228500    000001c0     rts6600_elf.lib : _printfi.obj (.text:_mcpy)
                  822286c0    000001c0     sysbios.lib : BIOS.obj (.text:ti_sysbios_family_c64p_Hwi_reconfig__E)
                  82228880    000001c0                 : BIOS.obj (.text:ti_sysbios_knl_Swi_Instance_init__F)
                  82228a40    000001c0                 : BIOS.obj (.text:ti_sysbios_knl_Task_checkStacks__E)
                  82228c00    000001c0                 : BIOS.obj (.text:ti_sysbios_timers_timer64_Timer_setPeriodMicroSecs__E)
                  82228dc0    000001a0     rts6600_elf.lib : trgdrv.obj (.text:HOSTrename)
                  82228f60    000001a0     ipc.lib : Ipc.obj (.text:SharedRegion_getCacheLineSize)
                  82229100    000001a0             : Ipc.obj (.text:SharedRegion_getHeap)
                  822292a0    000001a0             : Ipc.obj (.text:SharedRegion_isCacheEnabled)
                  82229440    000001a0     rts6600_elf.lib : imath40.obj (.text:__c6xabi_divul)
                  822295e0    000001a0     dft.obj (.text)
                  82229780    000001a0     ipc.lib : Ipc.obj (.text:ti_sdo_ipc_GateMP_openRegion0Reserved__F)
                  82229920    000001a0             : Ipc.obj (.text:ti_sdo_ipc_nsremote_NameServerRemoteNotify_attach__E)
                  82229ac0    000001a0             : Ipc.obj (.text:ti_sdo_ipc_transports_TransportShmNotify_put__E)
                  82229c60    000001a0     sysbios.lib : BIOS.obj (.text:ti_sysbios_family_c66_tci66xx_CpIntc_dispatch__F)
                  82229e00    000001a0                 : BIOS.obj (.text:ti_sysbios_gates_GateMutex_enter__E)
                  82229fa0    000001a0                 : BIOS.obj (.text:ti_sysbios_timers_timer64_Timer_start__E)
                  8222a140    00000180     edma3_lld_rm.ae66 : edma3resmgr.oe66 (.text:EDMA3_RM_registerTccCb)
                  8222a2c0    00000180     ipc.lib : Ipc.obj (.text:MultiProc_setLocalId)
                  8222a440    00000180             : Ipc.obj (.text:Notify_intLineRegistered)
                  8222a5c0    00000180     rts6600_elf.lib : copy_decompress_rle.obj (.text:__TI_decompress_rle_core)
                  8222a740    00000180     edma3_lld_rm.ae66 : edma3resmgr.oe66 (.text:edma3GlobalRegionInit)
                  8222a8c0    00000180     rts6600_elf.lib : setvbuf.obj (.text:setvbuf)
                  8222aa40    00000180     sysbios.lib : c64p_Exception_asm.obj (.text)
                  8222abc0    00000180     ipc.lib : Ipc.obj (.text:ti_sdo_ipc_MessageQ_registerTransport__F)
                  8222ad40    00000180             : Ipc.obj (.text:ti_sdo_ipc_Notify_Module_startup__F)
                  8222aec0    00000180             : Ipc.obj (.text:ti_sdo_ipc_gates_GatePeterson_enter__E)
                  8222b040    00000180             : Ipc.obj (.text:ti_sdo_utils_NameServer_Module_startup__F)
                  8222b1c0    00000180     sysbios.lib : BIOS.obj (.text:ti_sysbios_heaps_HeapMem_Instance_init__F)
                  8222b340    00000180                 : BIOS.obj (.text:ti_sysbios_knl_Semaphore_post__E)
                  8222b4c0    00000180                 : BIOS.obj (.text:ti_sysbios_knl_Task_unblockI__E)
                  8222b640    00000180     ti.targets.rts6000.ae66 : Text.oe66 (.text:xdc_runtime_Text_putSite__F)
                  8222b7c0    00000160     edma3_lld_drv.ae66 : edma3_drv_basic.oe66 (.text:EDMA3_DRV_setTransferParams)
                  8222b920    00000160     ipc.lib : Ipc.obj (.text:ti_sdo_ipc_GateMP_createLocal__F)
                  8222ba80    00000160             : Ipc.obj (.text:ti_sdo_ipc_MessageQ_unregisterTransport__F)
                  8222bbe0    00000160             : Ipc.obj (.text:ti_sdo_ipc_gates_GateHWSem_Instance_init__F)
                  8222bd40    00000160             : Ipc.obj (.text:ti_sdo_utils_NameServer_isRegistered__E)
                  8222bea0    00000160             : Ipc.obj (.text:ti_sdo_utils_NameServer_registerRemoteDriver__E)
                  8222c000    00000160             : Ipc.obj (.text:ti_sdo_utils_NameServer_unregisterRemoteDriver__E)
                  8222c160    00000160     sysbios.lib : BIOS.obj (.text:ti_sysbios_syncs_SyncSem_Instance_init__F)
                  8222c2c0    00000140     edma3_lld_drv.ae66 : edma3_drv_adv.oe66 (.text:EDMA3_DRV_setPaRAM)
                  8222c400    00000140                        : edma3_drv_adv.oe66 (.text:EDMA3_DRV_waitAndClearTcc)
                  8222c540    00000140     edma3_lld_rm.ae66 : edma3resmgr.oe66 (.text:EDMA3_RM_unregisterTccCb)
                  8222c680    00000140     ipc.lib : Ipc.obj (.text:GateMP_close)
                  8222c7c0    00000140             : Ipc.obj (.text:MessageQ_registerHeap)
                  8222c900    00000140             : Ipc.obj (.text:Notify_attach)
                  8222ca40    00000140     boot.ae66 : autoinit.oe66 (.text:_auto_init_elf)
                  8222cb80    00000140     rts6600_elf.lib : _printfi.obj (.text:_pproc_fflags)
                  8222ccc0    00000140                     : fputc.obj (.text:fputc)
                  8222ce00    00000140                     : lowlev.obj (.text:getdevice)
                  8222cf40    00000140     multiTwiddle_1_sa.obj (.text:psa)
                  8222d080    00000140     ipc.lib : Ipc.obj (.text:ti_sdo_ipc_Notify_exec__F)
                  8222d1c0    00000140     sysbios.lib : BIOS.obj (.text:ti_sysbios_family_c64p_Hwi_Module_startup__F)
                  8222d300    00000140                 : BIOS.obj (.text:ti_sysbios_family_c66_Cache_Module_startup__F)
                  8222d440    00000140                 : BIOS.obj (.text:ti_sysbios_gates_GateSwi_enter__E)
                  8222d580    00000140                 : BIOS.obj (.text:ti_sysbios_knl_Clock_Instance_finalize__F)
                  8222d6c0    00000140                 : BIOS.obj (.text:ti_sysbios_knl_Semaphore_Instance_init__F)
                  8222d800    00000140                 : BIOS.obj (.text:ti_sysbios_knl_Swi_post__E)
                  8222d940    00000140                 : BIOS.obj (.text:ti_sysbios_knl_Task_blockI__E)
                  8222da80    00000140                 : BIOS.obj (.text:ti_sysbios_knl_Task_yield__E)
                  8222dbc0    00000120     rts6600_elf.lib : imath64.obj (.text:__c6xabi_divlli)
                  8222dce0    00000120                     : _printfi.obj (.text:_ltostr)
                  8222de00    00000120                     : _io_perm.obj (.text:_wrt_ok)
                  8222df20    00000120                     : fclose.obj (.text:fclose)
                  8222e040    00000120     sysbios.lib : BIOS.obj (.text:rtsUnlock$0)
                  8222e160    00000120     ipc.lib : Ipc.obj (.text:ti_sdo_ipc_MessageQ_Module_startup__F)
                  8222e280    00000120             : Ipc.obj (.text:ti_sdo_ipc_family_c647x_Interrupt_intRegister__E)
                  8222e3a0    00000120             : Ipc.obj (.text:ti_sdo_ipc_nsremote_NameServerRemoteNotify_Instance_finalize__F)
                  8222e4c0    00000120     sysbios.lib : BIOS.obj (.text:ti_sysbios_xdcruntime_GateThreadSupport_leave__F)
                  8222e5e0    00000120     vlfftParamsInit.obj (.text)
                  8222e700    00000120     ti.targets.rts6000.ae66 : Text.oe66 (.text:xdc_runtime_Text_putLab__F)
                  8222e820    00000100     rts6600_elf.lib : trgdrv.obj (.text:HOSTlseek)
                  8222e920    00000100                     : fflush.obj (.text:fflush)
                  8222ea20    00000100     sysbios.lib : BIOS.obj (.text:initDevice$44)
                  8222eb20    00000100     ipc.lib : Ipc.obj (.text:ti_sdo_ipc_GateMP_start__F)
                  8222ec20    00000100             : Ipc.obj (.text:ti_sdo_ipc_Notify_Instance_finalize__F)
                  8222ed20    00000100             : Ipc.obj (.text:ti_sdo_ipc_SharedRegion_attach__F)
                  8222ee20    00000100             : Ipc.obj (.text:ti_sdo_ipc_SharedRegion_clearReservedMemory__F)
                  8222ef20    00000100             : Ipc.obj (.text:ti_sdo_ipc_family_c647x_Interrupt_Module_startup__F)
                  8222f020    00000100             : Ipc.obj (.text:ti_sdo_ipc_gates_GateHWSem_Module_startup__F)
                  8222f120    00000100             : Ipc.obj (.text:ti_sdo_ipc_gates_GateMPSupportNull_enter__E)
                  8222f220    00000100             : Ipc.obj (.text:ti_sdo_ipc_gates_GateMPSupportNull_leave__E)
                  8222f320    00000100             : Ipc.obj (.text:ti_sdo_ipc_transports_TransportShmNotify_Instance_init__F)
                  8222f420    00000100     sysbios.lib : BIOS.obj (.text:ti_sysbios_family_c64p_EventCombiner_dispatch__F)
                  8222f520    00000100                 : BIOS.obj (.text:ti_sysbios_gates_GateMutexPri_leave__E)
                  8222f620    00000100                 : BIOS.obj (.text:ti_sysbios_knl_Clock_startI__E)
                  8222f720    00000100     ti.targets.rts6000.ae66 : Core-mem.oe66 (.text:xdc_runtime_Core_deleteObject__I)
                  8222f820    00000100                             : Startup.oe66 (.text:xdc_runtime_Startup_exec__F)
                  8222f920    00000100                             : Text.oe66 (.text:xdc_runtime_Text_putMod__F)
                  8222fa20    00000100                             : Text.oe66 (.text:xdc_runtime_Text_visitRope2__I)
                  8222fb20    000000e0     rts6600_elf.lib : trgdrv.obj (.text:HOSTopen)
                  8222fc00    000000e0     ipc.lib : Ipc.obj (.text:HeapBufMP_create)
                  8222fce0    000000e0     rts6600_elf.lib : divi.obj (.text:__divi)
                  8222fdc0    000000e0                     : _printfi.obj (.text:_div)
                  8222fea0    000000e0                     : atoi.obj (.text:atoi)
                  8222ff80    000000e0                     : lowlev.obj (.text:close)
                  82230060    000000e0                     : copy_zero_init.obj (.text:decompress:ZI:__TI_zero_init)
                  82230140    000000e0     edma3_lld_drv_sample.ae66 : sample_cs.oe66 (.text:edma3OsProtectEntry)
                  82230220    000000e0     rts6600_elf.lib : exit.obj (.text:exit)
                  82230300    000000e0                     : ltoa.obj (.text:ltoa)
                  822303e0    000000e0                     : memset.obj (.text:memset)
                  822304c0    000000e0     vlfft_evmc6670l_pe66.oe66 (.text:ti_sdo_ipc_Notify_Object__create__S)
                  822305a0    000000e0     ipc.lib : Ipc.obj (.text:ti_sdo_ipc_family_c647x_NotifyCircSetup_attach__E)
                  82230680    000000e0             : Ipc.obj (.text:ti_sdo_ipc_gates_GateHWSem_enter__E)
                  82230760    000000e0             : Ipc.obj (.text:ti_sdo_ipc_heaps_HeapBufMP_getStats__F)
                  82230840    000000e0             : Ipc.obj (.text:ti_sdo_ipc_notifyDrivers_NotifyDriverCirc_disableEvent__E)
                  82230920    000000e0             : Ipc.obj (.text:ti_sdo_ipc_notifyDrivers_NotifyDriverCirc_enable__E)
                  82230a00    000000e0     vlfft_evmc6670l_pe66.oe66 (.text:ti_sysbios_family_c64p_Hwi_Object__create__S)
                  82230ae0    000000e0     sysbios.lib : BIOS.obj (.text:ti_sysbios_knl_Clock_start__E)
                  82230bc0    000000e0                 : BIOS.obj (.text:ti_sysbios_timers_timer64_Timer_startup__E)
                  82230ca0    000000e0     ti.targets.rts6000.ae66 : Error.oe66 (.text:xdc_runtime_Error_print__F)
                  82230d80    000000e0                             : Memory.oe66 (.text:xdc_runtime_Memory_alloc__F)
                  82230e60    000000c0     rts6600_elf.lib : trgdrv.obj (.text:HOSTread)
                  82230f20    000000c0                     : trgdrv.obj (.text:HOSTunlink)
                  82230fe0    000000c0                     : trgdrv.obj (.text:HOSTwrite)
                  822310a0    000000c0     ipc.lib : Ipc.obj (.text:HeapMemMP_create)
                  82231160    000000c0             : Ipc.obj (.text:ListMP_create)
                  82231220    000000c0     rts6600_elf.lib : dtor_list.obj (.text:__cxa_finalize)
                  822312e0    000000c0                     : divu.obj (.text:__divu)
                  822313a0    000000c0                     : remi.obj (.text:__remi)
                  82231460    000000c0                     : fopen.obj (.text:_cleanup)
                  82231520    000000c0                     : fflush.obj (.text:_doflush)
                  822315e0    000000c0     edma3_lld_drv_sample.ae66 : sample_cs.oe66 (.text:edma3OsProtectExit)
                  822316a0    000000c0     rts6600_elf.lib : fseek.obj (.text:fseek)
                  82231760    000000c0                     : lowlev.obj (.text:lseek)
                  82231820    000000c0     transpose_2Cols_rowsX8_cplxMatrix_sa.obj (.text:psa)
                  822318e0    000000c0     transpose_2Rows_8XCols_cplxMatrix_sa.obj (.text:psa)
                  822319a0    000000c0     vlfft_evmc6670l_pe66.oe66 (.text:ti_sdo_ipc_GateMP_Object__create__S)
                  82231a60    000000c0     ipc.lib : Ipc.obj (.text:ti_sdo_ipc_GateMP_getRegion0ReservedSize__F)
                  82231b20    000000c0     vlfft_evmc6670l_pe66.oe66 (.text:ti_sdo_ipc_ListMP_Object__create__S)
                  82231be0    000000c0     vlfft_evmc6670l_pe66.oe66 (.text:ti_sdo_ipc_MessageQ_Object__create__S)
                  82231ca0    000000c0     ipc.lib : Ipc.obj (.text:ti_sdo_ipc_family_c647x_Interrupt_intShmStub__I)
                  82231d60    000000c0     vlfft_evmc6670l_pe66.oe66 (.text:ti_sdo_ipc_gates_GatePeterson_Object__create__S)
                  82231e20    000000c0     vlfft_evmc6670l_pe66.oe66 (.text:ti_sdo_ipc_heaps_HeapBufMP_Object__create__S)
                  82231ee0    000000c0     vlfft_evmc6670l_pe66.oe66 (.text:ti_sdo_ipc_heaps_HeapMemMP_Object__create__S)
                  82231fa0    000000c0     vlfft_evmc6670l_pe66.oe66 (.text:ti_sdo_ipc_nsremote_NameServerRemoteNotify_Object__create__S)
                  82232060    000000c0     ipc.lib : Ipc.obj (.text:ti_sdo_ipc_transports_TransportShmNotifySetup_attach__E)
                  82232120    000000c0     vlfft_evmc6670l_pe66.oe66 (.text:ti_sdo_ipc_transports_TransportShmNotify_Object__create__S)
                  822321e0    000000c0     sysbios.lib : BIOS.obj (.text:ti_sysbios_BIOS_errorRaiseHook__I)
                  822322a0    000000c0                 : BIOS.obj (.text:ti_sysbios_family_c64p_Hwi_Instance_init__F)
                  82232360    000000c0                 : BIOS.obj (.text:ti_sysbios_gates_GateAll_leave__E)
                  82232420    000000c0                 : BIOS.obj (.text:ti_sysbios_heaps_HeapMem_getStats__E)
                  822324e0    000000c0                 : BIOS.obj (.text:ti_sysbios_knl_Clock_logTick__E)
                  822325a0    000000c0                 : BIOS.obj (.text:ti_sysbios_knl_Idle_loop__E)
                  82232660    000000c0                 : BIOS.obj (.text:ti_sysbios_knl_Swi_Instance_finalize__F)
                  82232720    000000c0     vlfft_evmc6670l_pe66.oe66 (.text:ti_sysbios_knl_Swi_Object__create__S)
                  822327e0    000000c0     vlfft_evmc6670l_pe66.oe66 (.text:ti_sysbios_knl_Task_Object__create__S)
                  822328a0    000000c0     vlfft_evmc6670l_pe66.oe66 (.text:ti_sysbios_syncs_SyncSem_Object__create__S)
                  82232960    000000c0     sysbios.lib : BIOS.obj (.text:ti_sysbios_timers_timer64_Timer_stop__E)
                  82232a20    000000c0     vlfftEdmaInit.obj (.text)
                  82232ae0    000000c0     rts6600_elf.lib : lowlev.obj (.text:write)
                  82232ba0    000000c0     ti.targets.rts6000.ae66 : System.oe66 (.text:xdc_runtime_System_formatNum__I)
                  82232c60    000000c0     vlfft_evmc6670l_pe66.oe66 (.text:xdc_runtime_knl_GateThread_Object__create__S)
                  82232d20    000000a0     rts6600_elf.lib : trgdrv.obj (.text:HOSTclose)
                  82232dc0    000000a0     ipc.lib : Ipc.obj (.text:MessageQ_create)
                  82232e60    000000a0     STMHelper.obj (.text)
                  82232f00    000000a0     rts6600_elf.lib : fltulld.obj (.text:__c6xabi_fltulld)
                  82232fa0    000000a0                     : round.obj (.text:__c6xabi_nround)
                  82233040    000000a0                     : remu.obj (.text:__remu)
                  822330e0    000000a0     boot.ae66 : boot.oe66 (.text:_c_int00)
                  82233180    000000a0     rts6600_elf.lib : _printfi.obj (.text:_ecpy)
                  82233220    000000a0                     : _printfi.obj (.text:_fcpy)
                  822332c0    000000a0                     : _printfi.obj (.text:_pconv_f)
                  82233360    000000a0     sysbios.lib : c64p_Hwi_asm.obj (.text:_ti_sysbios_family_c64p_Hwi_plug__E)
                  82233400    000000a0     rts6600_elf.lib : lowlev.obj (.text:finddevice)
                  822334a0    000000a0                     : memcpy64.obj (.text:memcpy)
                  82233540    000000a0                     : modf.obj (.text:modf)
                  822335e0    000000a0     ipc.lib : Ipc.obj (.text:ti_sdo_ipc_family_c647x_Interrupt_intUnregister__E)
                  82233680    000000a0             : Ipc.obj (.text:ti_sdo_ipc_gates_GatePeterson_leave__E)
                  82233720    000000a0             : Ipc.obj (.text:ti_sdo_ipc_notifyDrivers_NotifyDriverCirc_Instance_finalize__F)
                  822337c0    000000a0     sysbios.lib : BIOS.obj (.text:ti_sysbios_heaps_HeapMem_init__I)
                  82233860    000000a0                 : BIOS.obj (.text:ti_sysbios_syncs_SyncSem_wait__F)
                  82233900    000000a0     ti.targets.rts6000.ae66 : Assert.oe66 (.text:xdc_runtime_Assert_raise__I)
                  822339a0    00000080     ipc.lib : Ipc.obj (.text:HeapBufMP_Params_init)
                  82233a20    00000080     rts6600_elf.lib : dtor_list.obj (.text:_Z11__TI_atexitPFYvPvES_S_)
                  82233aa0    00000080                     : llshift.obj (.text:__c6xabi_llshl)
                  82233b20    00000080     sysbios.lib : c62_TaskSupport_asm.obj (.text:_ti_sysbios_family_c62_TaskSupport_swap__E)
                  82233ba0    00000080     edma3_lld_rm.ae66 : edma3resmgr.oe66 (.text:edma3MemCpy)
                  82233c20    00000080     edma3_lld_drv_sample.ae66 : sample_cs.oe66 (.text:edma3OsSemCreate)
                  82233ca0    00000080     rts6600_elf.lib : fprintf.obj (.text:fprintf)
                  82233d20    00000080     vlfft_evmc6670l_pe66.oe66 (.text:malloc)
                  82233da0    00000080     rts6600_elf.lib : printf.obj (.text:printf)
                  82233e20    00000080                     : trgmsg.obj (.text:readmsg)
                  82233ea0    00000080     system_trace.obj (.text)
                  82233f20    00000080     vlfft_evmc6670l_pe66.oe66 (.text:ti_sdo_ipc_gates_GateHWSem_Object__create__S)
                  82233fa0    00000080     vlfft_evmc6670l_pe66.oe66 (.text:ti_sdo_ipc_gates_GateMPSupportNull_Object__create__S)
                  82234020    00000080     vlfft_evmc6670l_pe66.oe66 (.text:ti_sdo_ipc_notifyDrivers_NotifyDriverCirc_Object__create__S)
                  822340a0    00000080     ipc.lib : Ipc.obj (.text:ti_sdo_ipc_nsremote_NameServerRemoteNotify_detach__E)
                  82234120    00000080             : Ipc.obj (.text:ti_sdo_ipc_transports_TransportShmNotify_Instance_finalize__F)
                  822341a0    00000080     vlfft_evmc6670l_pe66.oe66 (.text:ti_sdo_utils_List_Object__create__S)
                  82234220    00000080     sysbios.lib : BIOS.obj (.text:ti_sysbios_family_c62_TaskSupport_start__E)
                  822342a0    00000080                 : BIOS.obj (.text:ti_sysbios_family_c64p_Exception_Module_startup__F)
                  82234320    00000080                 : BIOS.obj (.text:ti_sysbios_family_c64p_Hwi_Instance_finalize__F)
                  822343a0    00000080                 : BIOS.obj (.text:ti_sysbios_family_c64p_Hwi_eventMap__E)
                  82234420    00000080                 : BIOS.obj (.text:ti_sysbios_family_c66_Cache_invL1pAll__E)
                  822344a0    00000080                 : BIOS.obj (.text:ti_sysbios_family_c66_tci66xx_CpIntc_mapSysIntToHostInt__F)
                  82234520    00000080     vlfft_evmc6670l_pe66.oe66 (.text:ti_sysbios_gates_GateAll_Object__create__S)
                  822345a0    00000080     vlfft_evmc6670l_pe66.oe66 (.text:ti_sysbios_gates_GateHwi_Object__create__S)
                  82234620    00000080     vlfft_evmc6670l_pe66.oe66 (.text:ti_sysbios_gates_GateMutexPri_Object__create__S)
                  822346a0    00000080     vlfft_evmc6670l_pe66.oe66 (.text:ti_sysbios_gates_GateMutex_Object__create__S)
                  82234720    00000080     vlfft_evmc6670l_pe66.oe66 (.text:ti_sysbios_gates_GateSwi_Object__create__S)
                  822347a0    00000080     sysbios.lib : BIOS.obj (.text:ti_sysbios_gates_GateSwi_leave__E)
                  82234820    00000080                 : BIOS.obj (.text:ti_sysbios_hal_Hwi_checkStack:ti_sysbios_hal_Hwi_checkStack)
                  822348a0    00000080     vlfft_evmc6670l_pe66.oe66 (.text:ti_sysbios_heaps_HeapMem_Object__create__S)
                  82234920    00000080     sysbios.lib : BIOS.obj (.text:ti_sysbios_knl_Clock_Module_startup__F)
                  822349a0    00000080     vlfft_evmc6670l_pe66.oe66 (.text:ti_sysbios_knl_Clock_Object__create__S)
                  82234a20    00000080     sysbios.lib : BIOS.obj (.text:ti_sysbios_knl_Clock_getTicks__E)
                  82234aa0    00000080     vlfft_evmc6670l_pe66.oe66 (.text:ti_sysbios_knl_Queue_Object__create__S)
                  82234b20    00000080     vlfft_evmc6670l_pe66.oe66 (.text:ti_sysbios_knl_Semaphore_Object__create__S)
                  82234ba0    00000080     sysbios.lib : BIOS.obj (.text:ti_sysbios_knl_Semaphore_pendTimeout__I)
                  82234c20    00000080                 : BIOS.obj (.text:ti_sysbios_knl_Swi_startup__E)
                  82234ca0    00000080                 : BIOS.obj (.text:ti_sysbios_knl_Task_restore__E)
                  82234d20    00000080                 : BIOS.obj (.text:ti_sysbios_timers_timer64_Timer_getCount__E)
                  82234da0    00000080                 : BIOS.obj (.text:ti_sysbios_timers_timer64_Timer_getPeriod__E)
                  82234e20    00000080     vlfft_evmc6670l_pe66.oe66 (.text:ti_sysbios_xdcruntime_GateThreadSupport_Object__create__S)
                  82234ea0    00000080     rts6600_elf.lib : lowlev.obj (.text:unlink)
                  82234f20    00000080     ti.targets.rts6000.ae66 : Core-label.oe66 (.text:xdc_runtime_Core_assignLabel__I)
                  82234fa0    00000080                             : Core-params.oe66 (.text:xdc_runtime_Core_assignParams__I)
                  82235020    00000080                             : System.oe66 (.text:xdc_runtime_System_atexit__F)
                  822350a0    00000080                             : System.oe66 (.text:xdc_runtime_System_rtsExit__I)
                  82235120    00000080                             : Text.oe66 (.text:xdc_runtime_Text_printVisFxn__I)
                  822351a0    00000080                             : Text.oe66 (.text:xdc_runtime_Text_xprintf__I)
                  82235220    00000060     ipc.lib : Ipc.obj (.text:GateMP_Params_init)
                  82235280    00000060             : Ipc.obj (.text:HeapMemMP_Params_init)
                  822352e0    00000060     stm_d.c66xx_elf.lib : StmLibrary.obj (.text:STMLibraryFast:Compose_Address)
                  82235340    00000060     rts6600_elf.lib : assert.obj (.text:__c6xabi_abort_msg)
                  822353a0    00000060                     : frcmpyd_div.obj (.text:__c6xabi_frcmpyd_div)
                  82235400    00000060                     : llshift.obj (.text:__c6xabi_llshru)
                  82235460    00000060                     : imath64.obj (.text:_subcull)
                  822354c0    00000060                     : memccpy.obj (.text:memccpy)
                  82235520    00000060     vlfft_evmc6670l_pe66.oe66 (.text:ti_sdo_ipc_GateMP_Object__delete__S)
                  82235580    00000060     vlfft_evmc6670l_pe66.oe66 (.text:ti_sdo_ipc_ListMP_Object__delete__S)
                  822355e0    00000060     vlfft_evmc6670l_pe66.oe66 (.text:ti_sdo_ipc_MessageQ_Object__get__S)
                  82235640    00000060     ipc.lib : Ipc.obj (.text:ti_sdo_ipc_family_c647x_NotifyCircSetup_sharedMemReq__E)
                  822356a0    00000060             : Ipc.obj (.text:ti_sdo_ipc_gates_GateHWSem_leave__E)
                  82235700    00000060             : Ipc.obj (.text:ti_sdo_ipc_gates_GatePeterson_Instance_finalize__F)
                  82235760    00000060     vlfft_evmc6670l_pe66.oe66 (.text:ti_sdo_ipc_gates_GatePeterson_Object__delete__S)
                  822357c0    00000060     ipc.lib : Ipc.obj (.text:ti_sdo_ipc_gates_GatePeterson_sharedMemReq__E)
                  82235820    00000060     vlfft_evmc6670l_pe66.oe66 (.text:ti_sdo_ipc_heaps_HeapBufMP_Object__delete__S)
                  82235880    00000060     vlfft_evmc6670l_pe66.oe66 (.text:ti_sdo_ipc_heaps_HeapMemMP_Object__delete__S)
                  822358e0    00000060     vlfft_evmc6670l_pe66.oe66 (.text:ti_sdo_ipc_notifyDrivers_NotifyDriverCirc_Object__delete__S)
                  82235940    00000060     vlfft_evmc6670l_pe66.oe66 (.text:ti_sdo_ipc_nsremote_NameServerRemoteNotify_Object__delete__S)
                  822359a0    00000060     vlfft_evmc6670l_pe66.oe66 (.text:ti_sdo_ipc_transports_TransportShmNotify_Object__delete__S)
                  82235a00    00000060     ipc.lib : Ipc.obj (.text:ti_sdo_ipc_transports_TransportShmNotify_notifyFxn__I)
                  82235a60    00000060     vlfft_evmc6670l_pe66.oe66 (.text:ti_sdo_utils_List_Object__get__S)
                  82235ac0    00000060     vlfft_evmc6670l_pe66.oe66 (.text:ti_sdo_utils_NameServer_Object__get__S)
                  82235b20    00000060     vlfft_evmc6670l_pe66.oe66 (.text:ti_sysbios_BIOS_exitFunc__I)
                  82235b80    00000060     sysbios.lib : BIOS.obj (.text:ti_sysbios_BIOS_registerRTSLock__I)
                  82235be0    00000060                 : BIOS.obj (.text:ti_sysbios_family_c64p_EventCombiner_Module_startup__F)
                  82235c40    00000060                 : BIOS.obj (.text:ti_sysbios_family_c64p_EventCombiner_dispatchPlug__F)
                  82235ca0    00000060                 : BIOS.obj (.text:ti_sysbios_family_c64p_EventCombiner_unused__F)
                  82235d00    00000060     vlfft_evmc6670l_pe66.oe66 (.text:ti_sysbios_family_c64p_Hwi_Object__delete__S)
                  82235d60    00000060     sysbios.lib : BIOS.obj (.text:ti_sysbios_family_c66_tci66xx_CpIntc_unused__F)
                  82235dc0    00000060                 : BIOS.obj (.text:ti_sysbios_gates_GateAll_enter__E)
                  82235e20    00000060     vlfft_evmc6670l_pe66.oe66 (.text:ti_sysbios_gates_GateMutexPri_Object__delete__S)
                  82235e80    00000060     sysbios.lib : BIOS.obj (.text:ti_sysbios_gates_GateMutex_Instance_init__F)
                  82235ee0    00000060     vlfft_evmc6670l_pe66.oe66 (.text:ti_sysbios_gates_GateMutex_Object__delete__S)
                  82235f40    00000060     sysbios.lib : BIOS.obj (.text:ti_sysbios_hal_Hwi_initStack:ti_sysbios_hal_Hwi_initStack)
                  82235fa0    00000060     vlfft_evmc6670l_pe66.oe66 (.text:ti_sysbios_heaps_HeapMem_Object__get__S)
                  82236000    00000060     vlfft_evmc6670l_pe66.oe66 (.text:ti_sysbios_knl_Clock_doTick__I)
                  82236060    00000060     vlfft_evmc6670l_pe66.oe66 (.text:ti_sysbios_knl_Queue_Object__get__S)
                  822360c0    00000060     vlfft_evmc6670l_pe66.oe66 (.text:ti_sysbios_knl_Semaphore_Object__delete__S)
                  82236120    00000060     sysbios.lib : BIOS.obj (.text:ti_sysbios_knl_Swi_Module_startup__F)
                  82236180    00000060     vlfft_evmc6670l_pe66.oe66 (.text:ti_sysbios_knl_Swi_Object__get__S)
                  822361e0    00000060     vlfft_evmc6670l_pe66.oe66 (.text:ti_sysbios_knl_Task_Object__get__S)
                  82236240    00000060     sysbios.lib : BIOS.obj (.text:ti_sysbios_knl_Task_allBlockedFunction__I)
                  822362a0    00000060                 : BIOS.obj (.text:ti_sysbios_knl_Task_enter__I)
                  82236300    00000060     vlfft_evmc6670l_pe66.oe66 (.text:ti_sysbios_syncs_SyncSem_Object__delete__S)
                  82236360    00000060     vlfft_evmc6670l_pe66.oe66 (.text:ti_sysbios_xdcruntime_GateThreadSupport_Object__delete__S)
                  822363c0    00000060     rts6600_elf.lib : trgmsg.obj (.text:writemsg)
                  82236420    00000060     vlfft_evmc6670l_pe66.oe66 (.text:xdc_runtime_GateNull_Object__create__S)
                  82236480    00000060     ti.targets.rts6000.ae66 : Memory.oe66 (.text:xdc_runtime_Memory_calloc__F)
                  822364e0    00000060                             : SysStd.oe66 (.text:xdc_runtime_SysStd_abort__F)
                  82236540    00000060                             : System.oe66 (.text:xdc_runtime_System_avprintf__F)
                  822365a0    00000060                             : System.oe66 (.text:xdc_runtime_System_vprintf__F)
                  82236600    00000060                             : Text.oe66 (.text:xdc_runtime_Text_cordText__F)
                  82236660    00000060     vlfft_evmc6670l_pe66.oe66 (.text:xdc_runtime_knl_GateThread_Object__delete__S)
                  822366c0    00000040     stm_d.c66xx_elf.lib : StmLibrary.obj (.text:Build_CompactOST_Header)
                  82236700    00000040                         : StmLibrary.obj (.text:Build_ExtendedOST_Header)
                  82236740    00000040     edma3_lld_drv_sample.ae66 : sample_cs.oe66 (.text:Edma3_CacheFlush)
                  82236780    00000040     rts6600_elf.lib : isinf.obj (.text:__c6xabi_isinf)
                  822367c0    00000040                     : _printfi.obj (.text:__c6xabi_isnan)
                  82236800    00000040                     : args_main.obj (.text:_args_main)
                  82236840    00000040     sysbios.lib : c62_TaskSupport_asm.obj (.text:_ti_sysbios_family_c62_TaskSupport_buildTaskStack)
                  82236880    00000040                 : c64p_Hwi_asm_switch.obj (.text:_ti_sysbios_family_xxx_Hwi_switchToIsrStack)
                  822368c0    00000040     edma3_lld_drv_sample.ae66 : sample_cs.oe66 (.text:edma3OsSemGive)
                  82236900    00000040                               : sample_cs.oe66 (.text:edma3OsSemTake)
                  82236940    00000040     vlfft_evmc6670l_pe66.oe66 (.text:free)
                  82236980    00000040     rts6600_elf.lib : abs.obj (.text:llabs)
                  822369c0    00000040     sysbios.lib : BIOS.obj (.text:rtsLock$0)
                  82236a00    00000040     rts6600_elf.lib : strchr.obj (.text:strchr)
                  82236a40    00000040                     : strlen.obj (.text:strlen)
                  82236a80    00000040     vlfft_evmc6670l_pe66.oe66 (.text:ti_sdo_ipc_GateMP_Params__init__S)
                  82236ac0    00000040     vlfft_evmc6670l_pe66.oe66 (.text:ti_sdo_ipc_GateMP_RemoteCustom1Proxy_Object__create__S)
                  82236b00    00000040     vlfft_evmc6670l_pe66.oe66 (.text:ti_sdo_ipc_GateMP_RemoteCustom2Proxy_Object__create__S)
                  82236b40    00000040     vlfft_evmc6670l_pe66.oe66 (.text:ti_sdo_ipc_GateMP_RemoteSystemProxy_Object__create__S)
                  82236b80    00000040     vlfft_evmc6670l_pe66.oe66 (.text:ti_sdo_ipc_ListMP_Params__init__S)
                  82236bc0    00000040     vlfft_evmc6670l_pe66.oe66 (.text:ti_sdo_ipc_MessageQ_Params__init__S)
                  82236c00    00000040     vlfft_evmc6670l_pe66.oe66 (.text:ti_sdo_ipc_MessageQ_registerTransport__E)
                  82236c40    00000040     ipc.lib : Ipc.obj (.text:ti_sdo_ipc_family_c647x_Interrupt_intClear__E)
                  82236c80    00000040             : Ipc.obj (.text:ti_sdo_ipc_family_c647x_Interrupt_intSend__E)
                  82236cc0    00000040     vlfft_evmc6670l_pe66.oe66 (.text:ti_sdo_ipc_gates_GateHWSem_Handle__label__S)
                  82236d00    00000040     vlfft_evmc6670l_pe66.oe66 (.text:ti_sdo_ipc_gates_GateHWSem_Object__delete__S)
                  82236d40    00000040     vlfft_evmc6670l_pe66.oe66 (.text:ti_sdo_ipc_gates_GateHWSem_Params__init__S)
                  82236d80    00000040     vlfft_evmc6670l_pe66.oe66 (.text:ti_sdo_ipc_gates_GateMPSupportNull_Handle__label__S)
                  82236dc0    00000040     vlfft_evmc6670l_pe66.oe66 (.text:ti_sdo_ipc_gates_GateMPSupportNull_Object__delete__S)
                  82236e00    00000040     vlfft_evmc6670l_pe66.oe66 (.text:ti_sdo_ipc_gates_GateMPSupportNull_Params__init__S)
                  82236e40    00000040     vlfft_evmc6670l_pe66.oe66 (.text:ti_sdo_ipc_gates_GatePeterson_Handle__label__S)
                  82236e80    00000040     vlfft_evmc6670l_pe66.oe66 (.text:ti_sdo_ipc_gates_GatePeterson_Params__init__S)
                  82236ec0    00000040     vlfft_evmc6670l_pe66.oe66 (.text:ti_sdo_ipc_heaps_HeapBufMP_Handle__label__S)
                  82236f00    00000040     vlfft_evmc6670l_pe66.oe66 (.text:ti_sdo_ipc_heaps_HeapBufMP_Params__init__S)
                  82236f40    00000040     vlfft_evmc6670l_pe66.oe66 (.text:ti_sdo_ipc_heaps_HeapMemMP_Handle__label__S)
                  82236f80    00000040     vlfft_evmc6670l_pe66.oe66 (.text:ti_sdo_ipc_heaps_HeapMemMP_Params__init__S)
                  82236fc0    00000040     vlfft_evmc6670l_pe66.oe66 (.text:ti_sdo_ipc_notifyDrivers_NotifyDriverCirc_Handle__label__S)
                  82237000    00000040     vlfft_evmc6670l_pe66.oe66 (.text:ti_sdo_ipc_notifyDrivers_NotifyDriverCirc_InterruptProxy_intRegister__E)
                  82237040    00000040     vlfft_evmc6670l_pe66.oe66 (.text:ti_sdo_ipc_notifyDrivers_NotifyDriverCirc_Params__init__S)
                  82237080    00000040     ipc.lib : Ipc.obj (.text:ti_sdo_ipc_notifyDrivers_NotifyDriverCirc_disable__E)
                  822370c0    00000040             : Ipc.obj (.text:ti_sdo_ipc_notifyDrivers_NotifyDriverCirc_enableEvent__E)
                  82237100    00000040             : Ipc.obj (.text:ti_sdo_ipc_notifyDrivers_NotifyDriverCirc_registerEvent__E)
                  82237140    00000040             : Ipc.obj (.text:ti_sdo_ipc_notifyDrivers_NotifyDriverCirc_unregisterEvent__E)
                  82237180    00000040     vlfft_evmc6670l_pe66.oe66 (.text:ti_sdo_ipc_nsremote_NameServerRemoteNotify_Handle__label__S)
                  822371c0    00000040     vlfft_evmc6670l_pe66.oe66 (.text:ti_sdo_ipc_nsremote_NameServerRemoteNotify_Object__first__S)
                  82237200    00000040     vlfft_evmc6670l_pe66.oe66 (.text:ti_sdo_ipc_nsremote_NameServerRemoteNotify_Object__next__S)
                  82237240    00000040     vlfft_evmc6670l_pe66.oe66 (.text:ti_sdo_ipc_nsremote_NameServerRemoteNotify_Params__init__S)
                  82237280    00000040     vlfft_evmc6670l_pe66.oe66 (.text:ti_sdo_ipc_nsremote_NameServerRemoteNotify_get__E)
                  822372c0    00000040     ipc.lib : Ipc.obj (.text:ti_sdo_ipc_nsremote_NameServerRemoteNotify_sharedMemReq__E)
                  82237300    00000040     vlfft_evmc6670l_pe66.oe66 (.text:ti_sdo_ipc_transports_TransportShmNotify_Handle__label__S)
                  82237340    00000040     vlfft_evmc6670l_pe66.oe66 (.text:ti_sdo_ipc_transports_TransportShmNotify_Params__init__S)
                  82237380    00000040     vlfft_evmc6670l_pe66.oe66 (.text:ti_sdo_utils_List_Object__destruct__S)
                  822373c0    00000040     vlfft_evmc6670l_pe66.oe66 (.text:ti_sdo_utils_NameServer_Module__startupDone__F)
                  82237400    00000040     vlfft_evmc6670l_pe66.oe66 (.text:ti_sdo_utils_NameServer_Object__first__S)
                  82237440    00000040     vlfft_evmc6670l_pe66.oe66 (.text:ti_sdo_utils_NameServer_Object__next__S)
                  82237480    00000040     vlfft_evmc6670l_pe66.oe66 (.text:ti_sysbios_BIOS_startFunc__I)
                  822374c0    00000040     sysbios.lib : BIOS.obj (.text:ti_sysbios_BIOS_start__E)
                  82237500    00000040                 : BIOS.obj (.text:ti_sysbios_family_c64p_EventCombiner_disableEvent__F)
                  82237540    00000040     vlfft_evmc6670l_pe66.oe66 (.text:ti_sysbios_family_c64p_EventCombiner_dispatchPlug__E)
                  82237580    00000040     sysbios.lib : BIOS.obj (.text:ti_sysbios_family_c64p_EventCombiner_enableEvent__F)
                  822375c0    00000040     vlfft_evmc6670l_pe66.oe66 (.text:ti_sysbios_family_c64p_Hwi_Module__startupDone__F)
                  82237600    00000040     vlfft_evmc6670l_pe66.oe66 (.text:ti_sysbios_family_c64p_Hwi_Params__init__S)
                  82237640    00000040     sysbios.lib : BIOS.obj (.text:ti_sysbios_family_c64p_Hwi_disableInterrupt__E)
                  82237680    00000040                 : BIOS.obj (.text:ti_sysbios_family_c64p_Hwi_enableInterrupt__E)
                  822376c0    00000040                 : BIOS.obj (.text:ti_sysbios_family_c66_Cache_wait__E)
                  82237700    00000040     vlfft_evmc6670l_pe66.oe66 (.text:ti_sysbios_family_c66_tci66xx_CpIntc_dispatchPlug__E)
                  82237740    00000040     sysbios.lib : BIOS.obj (.text:ti_sysbios_family_c66_tci66xx_CpIntc_dispatchPlug__F)
                  82237780    00000040                 : BIOS.obj (.text:ti_sysbios_family_c66_tci66xx_CpIntc_enableAllHostInts__F)
                  822377c0    00000040     vlfft_evmc6670l_pe66.oe66 (.text:ti_sysbios_gates_GateAll_Handle__label__S)
                  82237800    00000040     vlfft_evmc6670l_pe66.oe66 (.text:ti_sysbios_gates_GateAll_Object__delete__S)
                  82237840    00000040     vlfft_evmc6670l_pe66.oe66 (.text:ti_sysbios_gates_GateHwi_Handle__label__S)
                  82237880    00000040     vlfft_evmc6670l_pe66.oe66 (.text:ti_sysbios_gates_GateHwi_Object__delete__S)
                  822378c0    00000040     vlfft_evmc6670l_pe66.oe66 (.text:ti_sysbios_gates_GateMutexPri_Handle__label__S)
                  82237900    00000040     sysbios.lib : BIOS.obj (.text:ti_sysbios_gates_GateMutexPri_Instance_finalize__F)
                  82237940    00000040                 : BIOS.obj (.text:ti_sysbios_gates_GateMutexPri_Instance_init__F)
                  82237980    00000040     vlfft_evmc6670l_pe66.oe66 (.text:ti_sysbios_gates_GateMutexPri_Object__destruct__S)
                  822379c0    00000040     vlfft_evmc6670l_pe66.oe66 (.text:ti_sysbios_gates_GateMutex_Handle__label__S)
                  82237a00    00000040     sysbios.lib : BIOS.obj (.text:ti_sysbios_gates_GateMutex_Instance_finalize__F)
                  82237a40    00000040                 : BIOS.obj (.text:ti_sysbios_gates_GateMutex_leave__E)
                  82237a80    00000040     vlfft_evmc6670l_pe66.oe66 (.text:ti_sysbios_gates_GateSwi_Handle__label__S)
                  82237ac0    00000040     vlfft_evmc6670l_pe66.oe66 (.text:ti_sysbios_gates_GateSwi_Object__delete__S)
                  82237b00    00000040     vlfft_evmc6670l_pe66.oe66 (.text:ti_sysbios_hal_Cache_CacheProxy_inv__E)
                  82237b40    00000040     vlfft_evmc6670l_pe66.oe66 (.text:ti_sysbios_hal_Cache_CacheProxy_wbInv__E)
                  82237b80    00000040     vlfft_evmc6670l_pe66.oe66 (.text:ti_sysbios_hal_Cache_CacheProxy_wb__E)
                  82237bc0    00000040     vlfft_evmc6670l_pe66.oe66 (.text:ti_sysbios_hal_Timer_Module__startupDone__F)
                  82237c00    00000040     vlfft_evmc6670l_pe66.oe66 (.text:ti_sysbios_heaps_HeapMem_Handle__label__S)
                  82237c40    00000040     vlfft_evmc6670l_pe66.oe66 (.text:ti_sysbios_heaps_HeapMem_Object__delete__S)
                  82237c80    00000040     vlfft_evmc6670l_pe66.oe66 (.text:ti_sysbios_knl_Clock_Object__destruct__S)
                  82237cc0    00000040     vlfft_evmc6670l_pe66.oe66 (.text:ti_sysbios_knl_Clock_Params__init__S)
                  82237d00    00000040     vlfft_evmc6670l_pe66.oe66 (.text:ti_sysbios_knl_Queue_Object__destruct__S)
                  82237d40    00000040     sysbios.lib : BIOS.obj (.text:ti_sysbios_knl_Semaphore_Instance_finalize__F)
                  82237d80    00000040     vlfft_evmc6670l_pe66.oe66 (.text:ti_sysbios_knl_Semaphore_Object__destruct__S)
                  82237dc0    00000040     vlfft_evmc6670l_pe66.oe66 (.text:ti_sysbios_knl_Semaphore_Params__init__S)
                  82237e00    00000040     vlfft_evmc6670l_pe66.oe66 (.text:ti_sysbios_knl_Swi_Object__destruct__S)
                  82237e40    00000040     vlfft_evmc6670l_pe66.oe66 (.text:ti_sysbios_knl_Swi_Params__init__S)
                  82237e80    00000040     vlfft_evmc6670l_pe66.oe66 (.text:ti_sysbios_knl_Task_Object__first__S)
                  82237ec0    00000040     vlfft_evmc6670l_pe66.oe66 (.text:ti_sysbios_knl_Task_Object__next__S)
                  82237f00    00000040     vlfft_evmc6670l_pe66.oe66 (.text:ti_sysbios_knl_Task_Params__init__S)
                  82237f40    00000040     vlfft_evmc6670l_pe66.oe66 (.text:ti_sysbios_syncs_SyncSem_Handle__label__S)
                  82237f80    00000040     sysbios.lib : BIOS.obj (.text:ti_sysbios_syncs_SyncSem_Instance_finalize__F)
                  82237fc0    00000040     vlfft_evmc6670l_pe66.oe66 (.text:ti_sysbios_timers_timer64_Timer_Module__startupDone__F)
                  82238000    00000040     sysbios.lib : BIOS.obj (.text:ti_sysbios_xdcruntime_GateThreadSupport_Instance_finalize__F)
                  82238040    00000040                 : BIOS.obj (.text:ti_sysbios_xdcruntime_GateThreadSupport_Instance_init__F)
                  82238080    00000040                 : BIOS.obj (.text:ti_sysbios_xdcruntime_GateThreadSupport_enter__F)
                  822380c0    00000040     tsc_h.obj (.text)
                  82238100    00000040     ti.targets.rts6000.ae66 : Error.oe66 (.text:xdc_runtime_Error_check__F)
                  82238140    00000040                             : Error.oe66 (.text:xdc_runtime_Error_init__F)
                  82238180    00000040     vlfft_evmc6670l_pe66.oe66 (.text:xdc_runtime_Error_raiseX__E)
                  822381c0    00000040     vlfft_evmc6670l_pe66.oe66 (.text:xdc_runtime_GateNull_Handle__label__S)
                  82238200    00000040     vlfft_evmc6670l_pe66.oe66 (.text:xdc_runtime_GateNull_Object__delete__S)
                  82238240    00000040     ti.targets.rts6000.ae66 : Gate.oe66 (.text:xdc_runtime_Gate_leaveSystem__F)
                  82238280    00000040     vlfft_evmc6670l_pe66.oe66 (.text:xdc_runtime_IHeap_alloc)
                  822382c0    00000040     vlfft_evmc6670l_pe66.oe66 (.text:xdc_runtime_IHeap_free)
                  82238300    00000040     ti.targets.rts6000.ae66 : Memory.oe66 (.text:xdc_runtime_Memory_free__F)
                  82238340    00000040                             : Registry.oe66 (.text:xdc_runtime_Registry_findById__F)
                  82238380    00000040     vlfft_evmc6670l_pe66.oe66 (.text:xdc_runtime_Startup_exec__I)
                  822383c0    00000040     ti.targets.rts6000.ae66 : System.oe66 (.text:xdc_runtime_System_abort__F)
                  82238400    00000040     vlfft_evmc6670l_pe66.oe66 (.text:xdc_runtime_System_aprintf__E)
                  82238440    00000040     vlfft_evmc6670l_pe66.oe66 (.text:xdc_runtime_System_printf__E)
                  82238480    00000040     vlfft_evmc6670l_pe66.oe66 (.text:xdc_runtime_System_sprintf__E)
                  822384c0    00000040     ti.targets.rts6000.ae66 : Text.oe66 (.text:xdc_runtime_Text_ropeText__F)
                  82238500    00000040     vlfft_evmc6670l_pe66.oe66 (.text:xdc_runtime_Text_visitRope__I)
                  82238540    00000040     vlfft_evmc6670l_pe66.oe66 (.text:xdc_runtime_knl_GateThread_Handle__label__S)
                  82238580    00000040     ti.targets.rts6000.ae66 : GateThread.oe66 (.text:xdc_runtime_knl_GateThread_Instance_finalize__F)
                  822385c0    00000040                             : GateThread.oe66 (.text:xdc_runtime_knl_GateThread_Instance_init__F)
                  82238600    00000040     vlfft_evmc6670l_pe66.oe66 (.text:xdc_runtime_knl_GateThread_Proxy_Object__create__S)
                  82238640    00000020     ipc.lib : Ipc.obj (.text:MultiProc_self)
                  82238660    00000020     rts6600_elf.lib : negll.obj (.text:__c6xabi_negll)
                  82238680    00000020                     : trunc.obj (.text:__c6xabi_trunc)
                  822386a0    00000020                     : dtor_list.obj (.text:__cxa_atexit)
                  822386c0    00000020                     : dtor_list.obj (.text:__cxa_ia64_exit)
                  822386e0    00000020     ti.targets.rts6000.ae66 : xdc_noinit.oe66 (.text:__xdc__init)
                  82238700    00000020     rts6600_elf.lib : _lock.obj (.text:_nop)
                  82238720    00000020                     : fprintf.obj (.text:_outc)
                  82238740    00000020                     : printf.obj (.text:_outc)
                  82238760    00000020                     : fprintf.obj (.text:_outs)
                  82238780    00000020                     : printf.obj (.text:_outs)
                  822387a0    00000020                     : _lock.obj (.text:_register_lock)
                  822387c0    00000020                     : _lock.obj (.text:_register_unlock)
                  822387e0    00000020     sysbios.lib : c62_TaskSupport_asm.obj (.text:_ti_sysbios_family_c62_TaskSupport_glue)
                  82238800    00000020                 : c64p_Hwi_asm_switch.obj (.text:_ti_sysbios_family_xxx_Hwi_switchToTaskStack)
                  82238820    00000020     rts6600_elf.lib : exit.obj (.text:abort)
                  82238840    00000020                     : dtor_list.obj (.text:atexit)
                  82238860    00000020                     : copy_decompress_none.obj (.text:decompress:none:__TI_decompress_none)
                  82238880    00000020                     : copy_decompress_rle.obj (.text:decompress:rle24:__TI_decompress_rle24)
                  822388a0    00000020     edma3_lld_drv_sample.ae66 : sample_c6678_cfg.oe66 (.text:determineProcId)
                  822388c0    00000020     edma3_lld_rm.ae66 : edma3resmgr.oe66 (.text:edma3MemZero)
                  822388e0    00000020                       : edma3resmgr.oe66 (.text:edma3ParamCpy)
                  82238900    00000020     edma3_lld_drv_sample.ae66 : sample_c6678_cfg.oe66 (.text:isGblConfigRequired)
                  82238920    00000020     edma3_lld_rm.ae66 : edma3resmgr.oe66 (.text:lisrEdma3CCErrHandler0)
                  82238940    00000020                       : edma3resmgr.oe66 (.text:lisrEdma3ComplHandler0)
                  82238960    00000020                       : edma3resmgr.oe66 (.text:lisrEdma3TC0ErrHandler0)
                  82238980    00000020                       : edma3resmgr.oe66 (.text:lisrEdma3TC1ErrHandler0)
                  822389a0    00000020                       : edma3resmgr.oe66 (.text:lisrEdma3TC2ErrHandler0)
                  822389c0    00000020                       : edma3resmgr.oe66 (.text:lisrEdma3TC3ErrHandler0)
                  822389e0    00000020                       : edma3resmgr.oe66 (.text:lisrEdma3TC4ErrHandler0)
                  82238a00    00000020                       : edma3resmgr.oe66 (.text:lisrEdma3TC5ErrHandler0)
                  82238a20    00000020                       : edma3resmgr.oe66 (.text:lisrEdma3TC6ErrHandler0)
                  82238a40    00000020                       : edma3resmgr.oe66 (.text:lisrEdma3TC7ErrHandler0)
                  82238a60    00000020     sysbios.lib : BIOS.obj (.text:nullFunc$0)
                  82238a80    00000020     rts6600_elf.lib : fputc.obj (.text:putc)
                  82238aa0    00000020                     : fputc.obj (.text:putchar)
                  82238ac0    00000020     vlfft_evmc6670l_pe66.oe66 (.text:ti_sdo_ipc_GateMP_RemoteCustom1Proxy_Object__delete__S)
                  82238ae0    00000020     vlfft_evmc6670l_pe66.oe66 (.text:ti_sdo_ipc_GateMP_RemoteCustom1Proxy_Params__init__S)
                  82238b00    00000020     vlfft_evmc6670l_pe66.oe66 (.text:ti_sdo_ipc_GateMP_RemoteCustom1Proxy_Proxy__abstract__S)
                  82238b20    00000020     vlfft_evmc6670l_pe66.oe66 (.text:ti_sdo_ipc_GateMP_RemoteCustom1Proxy_Proxy__delegate__S)
                  82238b40    00000020     vlfft_evmc6670l_pe66.oe66 (.text:ti_sdo_ipc_GateMP_RemoteCustom1Proxy_getReservedMask__E)
                  82238b60    00000020     vlfft_evmc6670l_pe66.oe66 (.text:ti_sdo_ipc_GateMP_RemoteCustom1Proxy_sharedMemReq__E)
                  82238b80    00000020     vlfft_evmc6670l_pe66.oe66 (.text:ti_sdo_ipc_GateMP_RemoteCustom2Proxy_Object__delete__S)
                  82238ba0    00000020     vlfft_evmc6670l_pe66.oe66 (.text:ti_sdo_ipc_GateMP_RemoteCustom2Proxy_Params__init__S)
                  82238bc0    00000020     vlfft_evmc6670l_pe66.oe66 (.text:ti_sdo_ipc_GateMP_RemoteCustom2Proxy_Proxy__abstract__S)
                  82238be0    00000020     vlfft_evmc6670l_pe66.oe66 (.text:ti_sdo_ipc_GateMP_RemoteCustom2Proxy_Proxy__delegate__S)
                  82238c00    00000020     vlfft_evmc6670l_pe66.oe66 (.text:ti_sdo_ipc_GateMP_RemoteCustom2Proxy_getReservedMask__E)
                  82238c20    00000020     vlfft_evmc6670l_pe66.oe66 (.text:ti_sdo_ipc_GateMP_RemoteCustom2Proxy_sharedMemReq__E)
                  82238c40    00000020     vlfft_evmc6670l_pe66.oe66 (.text:ti_sdo_ipc_GateMP_RemoteSystemProxy_Object__delete__S)
                  82238c60    00000020     vlfft_evmc6670l_pe66.oe66 (.text:ti_sdo_ipc_GateMP_RemoteSystemProxy_Params__init__S)
                  82238c80    00000020     vlfft_evmc6670l_pe66.oe66 (.text:ti_sdo_ipc_GateMP_RemoteSystemProxy_Proxy__abstract__S)
                  82238ca0    00000020     vlfft_evmc6670l_pe66.oe66 (.text:ti_sdo_ipc_GateMP_RemoteSystemProxy_Proxy__delegate__S)
                  82238cc0    00000020     vlfft_evmc6670l_pe66.oe66 (.text:ti_sdo_ipc_GateMP_RemoteSystemProxy_getReservedMask__E)
                  82238ce0    00000020     vlfft_evmc6670l_pe66.oe66 (.text:ti_sdo_ipc_GateMP_RemoteSystemProxy_sharedMemReq__E)
                  82238d00    00000020     vlfft_evmc6670l_pe66.oe66 (.text:ti_sdo_ipc_GateMP_attach__E)
                  82238d20    00000020     vlfft_evmc6670l_pe66.oe66 (.text:ti_sdo_ipc_GateMP_getRegion0ReservedSize__E)
                  82238d40    00000020     vlfft_evmc6670l_pe66.oe66 (.text:ti_sdo_ipc_GateMP_getSharedAddr__E)
                  82238d60    00000020     ipc.lib : Ipc.obj (.text:ti_sdo_ipc_GateMP_getSharedAddr__F)
                  82238d80    00000020     vlfft_evmc6670l_pe66.oe66 (.text:ti_sdo_ipc_GateMP_start__E)
                  82238da0    00000020     vlfft_evmc6670l_pe66.oe66 (.text:ti_sdo_ipc_MessageQ_Module_startup__E)
                  82238dc0    00000020     vlfft_evmc6670l_pe66.oe66 (.text:ti_sdo_ipc_MessageQ_SetupTransportProxy_attach__E)
                  82238de0    00000020     vlfft_evmc6670l_pe66.oe66 (.text:ti_sdo_ipc_MessageQ_SetupTransportProxy_isRegistered__E)
                  82238e00    00000020     vlfft_evmc6670l_pe66.oe66 (.text:ti_sdo_ipc_MessageQ_SetupTransportProxy_sharedMemReq__E)
                  82238e20    00000020     vlfft_evmc6670l_pe66.oe66 (.text:ti_sdo_ipc_MessageQ_unregisterTransport__E)
                  82238e40    00000020     vlfft_evmc6670l_pe66.oe66 (.text:ti_sdo_ipc_Notify_Module_GateProxy_enter__E)
                  82238e60    00000020     vlfft_evmc6670l_pe66.oe66 (.text:ti_sdo_ipc_Notify_Module_GateProxy_leave__E)
                  82238e80    00000020     vlfft_evmc6670l_pe66.oe66 (.text:ti_sdo_ipc_Notify_Module_startup__E)
                  82238ea0    00000020     vlfft_evmc6670l_pe66.oe66 (.text:ti_sdo_ipc_Notify_SetupProxy_attach__E)
                  82238ec0    00000020     vlfft_evmc6670l_pe66.oe66 (.text:ti_sdo_ipc_Notify_SetupProxy_numIntLines__E)
                  82238ee0    00000020     vlfft_evmc6670l_pe66.oe66 (.text:ti_sdo_ipc_Notify_SetupProxy_sharedMemReq__E)
                  82238f00    00000020     vlfft_evmc6670l_pe66.oe66 (.text:ti_sdo_ipc_Notify_exec__E)
                  82238f20    00000020     vlfft_evmc6670l_pe66.oe66 (.text:ti_sdo_ipc_SharedRegion_attach__E)
                  82238f40    00000020     vlfft_evmc6670l_pe66.oe66 (.text:ti_sdo_ipc_SharedRegion_clearReservedMemory__E)
                  82238f60    00000020     vlfft_evmc6670l_pe66.oe66 (.text:ti_sdo_ipc_SharedRegion_reserveMemory__E)
                  82238f80    00000020     vlfft_evmc6670l_pe66.oe66 (.text:ti_sdo_ipc_SharedRegion_start__E)
                  82238fa0    00000020     vlfft_evmc6670l_pe66.oe66 (.text:ti_sdo_ipc_family_c647x_Interrupt_Module_startup__E)
                  82238fc0    00000020     ipc.lib : Ipc.obj (.text:ti_sdo_ipc_family_c647x_Interrupt_intDisable__E)
                  82238fe0    00000020             : Ipc.obj (.text:ti_sdo_ipc_family_c647x_Interrupt_intEnable__E)
                  82239000    00000020             : Ipc.obj (.text:ti_sdo_ipc_family_c647x_NotifyCircSetup_numIntLines__E)
                  82239020    00000020     vlfft_evmc6670l_pe66.oe66 (.text:ti_sdo_ipc_gates_GateHWSem_Module_startup__E)
                  82239040    00000020     ipc.lib : Ipc.obj (.text:ti_sdo_ipc_gates_GateHWSem_getReservedMask__E)
                  82239060    00000020     vlfft_evmc6670l_pe66.oe66 (.text:ti_sdo_ipc_gates_GateHWSem_query__E)
                  82239080    00000020     ipc.lib : Ipc.obj (.text:ti_sdo_ipc_gates_GateHWSem_query__F)
                  822390a0    00000020             : Ipc.obj (.text:ti_sdo_ipc_gates_GateHWSem_sharedMemReq__E)
                  822390c0    00000020             : Ipc.obj (.text:ti_sdo_ipc_gates_GateMPSupportNull_Instance_init__F)
                  822390e0    00000020             : Ipc.obj (.text:ti_sdo_ipc_gates_GateMPSupportNull_getReservedMask__E)
                  82239100    00000020     vlfft_evmc6670l_pe66.oe66 (.text:ti_sdo_ipc_gates_GateMPSupportNull_query__E)
                  82239120    00000020     ipc.lib : Ipc.obj (.text:ti_sdo_ipc_gates_GateMPSupportNull_query__F)
                  82239140    00000020             : Ipc.obj (.text:ti_sdo_ipc_gates_GateMPSupportNull_sharedMemReq__E)
                  82239160    00000020             : Ipc.obj (.text:ti_sdo_ipc_gates_GatePeterson_getReservedMask__E)
                  82239180    00000020     vlfft_evmc6670l_pe66.oe66 (.text:ti_sdo_ipc_gates_GatePeterson_query__E)
                  822391a0    00000020     ipc.lib : Ipc.obj (.text:ti_sdo_ipc_gates_GatePeterson_query__F)
                  822391c0    00000020     vlfft_evmc6670l_pe66.oe66 (.text:ti_sdo_ipc_heaps_HeapBufMP_getStats__E)
                  822391e0    00000020     vlfft_evmc6670l_pe66.oe66 (.text:ti_sdo_ipc_heaps_HeapBufMP_isBlocking__E)
                  82239200    00000020     ipc.lib : Ipc.obj (.text:ti_sdo_ipc_heaps_HeapBufMP_isBlocking__F)
                  82239220    00000020     vlfft_evmc6670l_pe66.oe66 (.text:ti_sdo_ipc_heaps_HeapMemMP_isBlocking__E)
                  82239240    00000020     ipc.lib : Ipc.obj (.text:ti_sdo_ipc_heaps_HeapMemMP_isBlocking__F)
                  82239260    00000020     vlfft_evmc6670l_pe66.oe66 (.text:ti_sdo_ipc_notifyDrivers_NotifyDriverCirc_InterruptProxy_intClear__E)
                  82239280    00000020     vlfft_evmc6670l_pe66.oe66 (.text:ti_sdo_ipc_notifyDrivers_NotifyDriverCirc_InterruptProxy_intDisable__E)
                  822392a0    00000020     vlfft_evmc6670l_pe66.oe66 (.text:ti_sdo_ipc_notifyDrivers_NotifyDriverCirc_InterruptProxy_intEnable__E)
                  822392c0    00000020     vlfft_evmc6670l_pe66.oe66 (.text:ti_sdo_ipc_notifyDrivers_NotifyDriverCirc_InterruptProxy_intSend__E)
                  822392e0    00000020     vlfft_evmc6670l_pe66.oe66 (.text:ti_sdo_ipc_notifyDrivers_NotifyDriverCirc_InterruptProxy_intUnregister__E)
                  82239300    00000020     ipc.lib : Ipc.obj (.text:ti_sdo_ipc_notifyDrivers_NotifyDriverCirc_setNotifyHandle__E)
                  82239320    00000020     vlfft_evmc6670l_pe66.oe66 (.text:ti_sdo_ipc_notifyDrivers_NotifyDriverCirc_sharedMemReq__E)
                  82239340    00000020     ipc.lib : Ipc.obj (.text:ti_sdo_ipc_nsremote_NameServerRemoteNotify_cbFxn__I)
                  82239360    00000020             : Ipc.obj (.text:ti_sdo_ipc_transports_TransportShmNotifySetup_isRegistered__E)
                  82239380    00000020             : Ipc.obj (.text:ti_sdo_ipc_transports_TransportShmNotifySetup_sharedMemReq__E)
                  822393a0    00000020             : Ipc.obj (.text:ti_sdo_ipc_transports_TransportShmNotify_control__E)
                  822393c0    00000020             : Ipc.obj (.text:ti_sdo_ipc_transports_TransportShmNotify_getStatus__E)
                  822393e0    00000020     vlfft_evmc6670l_pe66.oe66 (.text:ti_sdo_ipc_transports_TransportShmNotify_setErrFxn__E)
                  82239400    00000020     ipc.lib : Ipc.obj (.text:ti_sdo_ipc_transports_TransportShmNotify_setErrFxn__F)
                  82239420    00000020             : Ipc.obj (.text:ti_sdo_utils_List_Instance_init__F)
                  82239440    00000020     vlfft_evmc6670l_pe66.oe66 (.text:ti_sdo_utils_MultiProc_getClusterId__E)
                  82239460    00000020     ipc.lib : Ipc.obj (.text:ti_sdo_utils_MultiProc_getClusterId__F)
                  82239480    00000020     vlfft_evmc6670l_pe66.oe66 (.text:ti_sdo_utils_NameServer_Module__startupDone__S)
                  822394a0    00000020     vlfft_evmc6670l_pe66.oe66 (.text:ti_sdo_utils_NameServer_Module_startup__E)
                  822394c0    00000020     vlfft_evmc6670l_pe66.oe66 (.text:ti_sdo_utils_NameServer_SetupProxy_attach__E)
                  822394e0    00000020     vlfft_evmc6670l_pe66.oe66 (.text:ti_sdo_utils_NameServer_SetupProxy_sharedMemReq__E)
                  82239500    00000020     vlfft_evmc6670l_pe66.oe66 (.text:ti_sysbios_BIOS_RtsGateProxy_enter__E)
                  82239520    00000020     vlfft_evmc6670l_pe66.oe66 (.text:ti_sysbios_BIOS_RtsGateProxy_leave__E)
                  82239540    00000020     sysbios.lib : BIOS.obj (.text:ti_sysbios_BIOS_getThreadType__E)
                  82239560    00000020                 : BIOS.obj (.text:ti_sysbios_BIOS_setThreadType__E)
                  82239580    00000020     vlfft_evmc6670l_pe66.oe66 (.text:ti_sysbios_family_c62_TaskSupport_Module__startupDone__S)
                  822395a0    00000020     sysbios.lib : BIOS.obj (.text:ti_sysbios_family_c62_TaskSupport_checkStack__E)
                  822395c0    00000020                 : BIOS.obj (.text:ti_sysbios_family_c62_TaskSupport_getStackAlignment__E)
                  822395e0    00000020     vlfft_evmc6670l_pe66.oe66 (.text:ti_sysbios_family_c64p_EventCombiner_Module_startup__E)
                  82239600    00000020     vlfft_evmc6670l_pe66.oe66 (.text:ti_sysbios_family_c64p_EventCombiner_disableEvent__E)
                  82239620    00000020     vlfft_evmc6670l_pe66.oe66 (.text:ti_sysbios_family_c64p_EventCombiner_dispatch__E)
                  82239640    00000020     vlfft_evmc6670l_pe66.oe66 (.text:ti_sysbios_family_c64p_EventCombiner_enableEvent__E)
                  82239660    00000020     vlfft_evmc6670l_pe66.oe66 (.text:ti_sysbios_family_c64p_EventCombiner_unused__E)
                  82239680    00000020     vlfft_evmc6670l_pe66.oe66 (.text:ti_sysbios_family_c64p_Exception_Module_startup__E)
                  822396a0    00000020     vlfft_evmc6670l_pe66.oe66 (.text:ti_sysbios_family_c64p_Hwi_Module__startupDone__S)
                  822396c0    00000020     vlfft_evmc6670l_pe66.oe66 (.text:ti_sysbios_family_c64p_Hwi_Module_startup__E)
                  822396e0    00000020     sysbios.lib : BIOS.obj (.text:ti_sysbios_family_c64p_Hwi_clearInterrupt__E)
                  82239700    00000020                 : BIOS.obj (.text:ti_sysbios_family_c64p_Hwi_disable__E:ti_sysbios_family_c64p_Hwi_disable__E)
                  82239720    00000020                 : BIOS.obj (.text:ti_sysbios_family_c64p_Hwi_getHandle__E)
                  82239740    00000020                 : BIOS.obj (.text:ti_sysbios_family_c64p_Hwi_restore__E:ti_sysbios_family_c64p_Hwi_restore__E)
                  82239760    00000020                 : BIOS.obj (.text:ti_sysbios_family_c64p_Hwi_startup__E)
                  82239780    00000020                 : BIOS.obj (.text:ti_sysbios_family_c64p_Hwi_switchFromBootStack__E)
                  822397a0    00000020                 : BIOS.obj (.text:ti_sysbios_family_c64p_Hwi_unPluggedInterrupt__I)
                  822397c0    00000020     vlfft_evmc6670l_pe66.oe66 (.text:ti_sysbios_family_c64p_TimestampProvider_Module_startup__E)
                  822397e0    00000020     sysbios.lib : BIOS.obj (.text:ti_sysbios_family_c64p_TimestampProvider_Module_startup__F)
                  82239800    00000020                 : BIOS.obj (.text:ti_sysbios_family_c64p_TimestampProvider_get32__E)
                  82239820    00000020                 : BIOS.obj (.text:ti_sysbios_family_c64p_tci6488_TimerSupport_enable__E)
                  82239840    00000020     vlfft_evmc6670l_pe66.oe66 (.text:ti_sysbios_family_c66_Cache_Module_startup__E)
                  82239860    00000020     sysbios.lib : BIOS.obj (.text:ti_sysbios_family_c66_Cache_inv__E)
                  82239880    00000020                 : BIOS.obj (.text:ti_sysbios_family_c66_Cache_wbInv__E)
                  822398a0    00000020                 : BIOS.obj (.text:ti_sysbios_family_c66_Cache_wb__E)
                  822398c0    00000020     vlfft_evmc6670l_pe66.oe66 (.text:ti_sysbios_family_c66_tci66xx_CpIntc_Module_startup__E)
                  822398e0    00000020     vlfft_evmc6670l_pe66.oe66 (.text:ti_sysbios_family_c66_tci66xx_CpIntc_dispatch__E)
                  82239900    00000020     vlfft_evmc6670l_pe66.oe66 (.text:ti_sysbios_family_c66_tci66xx_CpIntc_enableAllHostInts__E)
                  82239920    00000020     vlfft_evmc6670l_pe66.oe66 (.text:ti_sysbios_family_c66_tci66xx_CpIntc_enableHostInt__E)
                  82239940    00000020     sysbios.lib : BIOS.obj (.text:ti_sysbios_family_c66_tci66xx_CpIntc_enableHostInt__F)
                  82239960    00000020     vlfft_evmc6670l_pe66.oe66 (.text:ti_sysbios_family_c66_tci66xx_CpIntc_getEventId__E)
                  82239980    00000020     sysbios.lib : BIOS.obj (.text:ti_sysbios_family_c66_tci66xx_CpIntc_getEventId__F)
                  822399a0    00000020     vlfft_evmc6670l_pe66.oe66 (.text:ti_sysbios_family_c66_tci66xx_CpIntc_mapSysIntToHostInt__E)
                  822399c0    00000020     vlfft_evmc6670l_pe66.oe66 (.text:ti_sysbios_family_c66_tci66xx_CpIntc_unused__E)
                  822399e0    00000020     sysbios.lib : BIOS.obj (.text:ti_sysbios_gates_GateAll_Instance_init__F)
                  82239a00    00000020     vlfft_evmc6670l_pe66.oe66 (.text:ti_sysbios_gates_GateAll_query__E)
                  82239a20    00000020     sysbios.lib : BIOS.obj (.text:ti_sysbios_gates_GateAll_query__F)
                  82239a40    00000020                 : BIOS.obj (.text:ti_sysbios_gates_GateHwi_Instance_init__F)
                  82239a60    00000020                 : BIOS.obj (.text:ti_sysbios_gates_GateHwi_enter__E)
                  82239a80    00000020                 : BIOS.obj (.text:ti_sysbios_gates_GateHwi_leave__E)
                  82239aa0    00000020     vlfft_evmc6670l_pe66.oe66 (.text:ti_sysbios_gates_GateHwi_query__E)
                  82239ac0    00000020     sysbios.lib : BIOS.obj (.text:ti_sysbios_gates_GateHwi_query__F)
                  82239ae0    00000020     vlfft_evmc6670l_pe66.oe66 (.text:ti_sysbios_gates_GateMutexPri_query__E)
                  82239b00    00000020     sysbios.lib : BIOS.obj (.text:ti_sysbios_gates_GateMutexPri_query__F)
                  82239b20    00000020     vlfft_evmc6670l_pe66.oe66 (.text:ti_sysbios_gates_GateMutex_query__E)
                  82239b40    00000020     sysbios.lib : BIOS.obj (.text:ti_sysbios_gates_GateMutex_query__F)
                  82239b60    00000020                 : BIOS.obj (.text:ti_sysbios_gates_GateSwi_Instance_init__F)
                  82239b80    00000020     vlfft_evmc6670l_pe66.oe66 (.text:ti_sysbios_gates_GateSwi_query__E)
                  82239ba0    00000020     sysbios.lib : BIOS.obj (.text:ti_sysbios_gates_GateSwi_query__F)
                  82239bc0    00000020     vlfft_evmc6670l_pe66.oe66 (.text:ti_sysbios_hal_Cache_CacheProxy_wait__E)
                  82239be0    00000020     vlfft_evmc6670l_pe66.oe66 (.text:ti_sysbios_hal_Hwi_HwiProxy_Module__startupDone__S)
                  82239c00    00000020     vlfft_evmc6670l_pe66.oe66 (.text:ti_sysbios_hal_Hwi_HwiProxy_clearInterrupt__E)
                  82239c20    00000020     vlfft_evmc6670l_pe66.oe66 (.text:ti_sysbios_hal_Hwi_HwiProxy_disableInterrupt__E)
                  82239c40    00000020     vlfft_evmc6670l_pe66.oe66 (.text:ti_sysbios_hal_Hwi_HwiProxy_enableInterrupt__E)
                  82239c60    00000020     vlfft_evmc6670l_pe66.oe66 (.text:ti_sysbios_hal_Hwi_HwiProxy_startup__E)
                  82239c80    00000020     vlfft_evmc6670l_pe66.oe66 (.text:ti_sysbios_hal_Hwi_HwiProxy_switchFromBootStack__E)
                  82239ca0    00000020     vlfft_evmc6670l_pe66.oe66 (.text:ti_sysbios_hal_Hwi_Module_startup__E)
                  82239cc0    00000020     sysbios.lib : BIOS.obj (.text:ti_sysbios_hal_Hwi_Module_startup__F)
                  82239ce0    00000020     vlfft_evmc6670l_pe66.oe66 (.text:ti_sysbios_hal_Timer_Module__startupDone__S)
                  82239d00    00000020     vlfft_evmc6670l_pe66.oe66 (.text:ti_sysbios_hal_Timer_Module_startup__E)
                  82239d20    00000020     sysbios.lib : BIOS.obj (.text:ti_sysbios_hal_Timer_Module_startup__F)
                  82239d40    00000020     vlfft_evmc6670l_pe66.oe66 (.text:ti_sysbios_hal_Timer_TimerProxy_Module__startupDone__S)
                  82239d60    00000020     vlfft_evmc6670l_pe66.oe66 (.text:ti_sysbios_hal_Timer_TimerProxy_getExpiredCounts__E)
                  82239d80    00000020     vlfft_evmc6670l_pe66.oe66 (.text:ti_sysbios_hal_Timer_TimerProxy_getPeriod__E)
                  82239da0    00000020     vlfft_evmc6670l_pe66.oe66 (.text:ti_sysbios_hal_Timer_TimerProxy_setNextTick__E)
                  82239dc0    00000020     vlfft_evmc6670l_pe66.oe66 (.text:ti_sysbios_hal_Timer_TimerProxy_startup__E)
                  82239de0    00000020     vlfft_evmc6670l_pe66.oe66 (.text:ti_sysbios_heaps_HeapMem_Module_GateProxy_enter__E)
                  82239e00    00000020     vlfft_evmc6670l_pe66.oe66 (.text:ti_sysbios_heaps_HeapMem_Module_GateProxy_leave__E)
                  82239e20    00000020     vlfft_evmc6670l_pe66.oe66 (.text:ti_sysbios_heaps_HeapMem_Module_GateProxy_query__E)
                  82239e40    00000020     sysbios.lib : BIOS.obj (.text:ti_sysbios_heaps_HeapMem_isBlocking__E)
                  82239e60    00000020     vlfft_evmc6670l_pe66.oe66 (.text:ti_sysbios_knl_Clock_Module_State_clockQ)
                  82239e80    00000020     vlfft_evmc6670l_pe66.oe66 (.text:ti_sysbios_knl_Clock_Module_startup__E)
                  82239ea0    00000020     sysbios.lib : BIOS.obj (.text:ti_sysbios_knl_Queue_Instance_init__F)
                  82239ec0    00000020                 : BIOS.obj (.text:ti_sysbios_knl_Queue_empty__E)
                  82239ee0    00000020     vlfft_evmc6670l_pe66.oe66 (.text:ti_sysbios_knl_Swi_Module_startup__E)
                  82239f00    00000020     sysbios.lib : BIOS.obj (.text:ti_sysbios_knl_Swi_disable__E)
                  82239f20    00000020     vlfft_evmc6670l_pe66.oe66 (.text:ti_sysbios_knl_Task_Module_startup__E)
                  82239f40    00000020     vlfft_evmc6670l_pe66.oe66 (.text:ti_sysbios_knl_Task_SupportProxy_Module__startupDone__S)
                  82239f60    00000020     vlfft_evmc6670l_pe66.oe66 (.text:ti_sysbios_knl_Task_SupportProxy_checkStack__E)
                  82239f80    00000020     vlfft_evmc6670l_pe66.oe66 (.text:ti_sysbios_knl_Task_SupportProxy_getStackAlignment__E)
                  82239fa0    00000020     vlfft_evmc6670l_pe66.oe66 (.text:ti_sysbios_knl_Task_SupportProxy_start__E)
                  82239fc0    00000020     vlfft_evmc6670l_pe66.oe66 (.text:ti_sysbios_knl_Task_SupportProxy_swap__E)
                  82239fe0    00000020     sysbios.lib : BIOS.obj (.text:ti_sysbios_knl_Task_disable__E)
                  8223a000    00000020                 : BIOS.obj (.text:ti_sysbios_knl_Task_enable__E)
                  8223a020    00000020                 : BIOS.obj (.text:ti_sysbios_knl_Task_getPri__E)
                  8223a040    00000020                 : BIOS.obj (.text:ti_sysbios_knl_Task_self__E)
                  8223a060    00000020     vlfft_evmc6670l_pe66.oe66 (.text:ti_sysbios_syncs_SyncSem_query__E)
                  8223a080    00000020     sysbios.lib : BIOS.obj (.text:ti_sysbios_syncs_SyncSem_query__F)
                  8223a0a0    00000020     vlfft_evmc6670l_pe66.oe66 (.text:ti_sysbios_syncs_SyncSem_signal__E)
                  8223a0c0    00000020     sysbios.lib : BIOS.obj (.text:ti_sysbios_syncs_SyncSem_signal__F)
                  8223a0e0    00000020     vlfft_evmc6670l_pe66.oe66 (.text:ti_sysbios_syncs_SyncSem_wait__E)
                  8223a100    00000020     vlfft_evmc6670l_pe66.oe66 (.text:ti_sysbios_timers_timer64_Timer_Module__startupDone__S)
                  8223a120    00000020     vlfft_evmc6670l_pe66.oe66 (.text:ti_sysbios_timers_timer64_Timer_Module_startup__E)
                  8223a140    00000020     vlfft_evmc6670l_pe66.oe66 (.text:ti_sysbios_timers_timer64_Timer_TimerSupportProxy_enable__E)
                  8223a160    00000020     sysbios.lib : BIOS.obj (.text:ti_sysbios_timers_timer64_Timer_setNextTick__E)
                  8223a180    00000020     vlfft_evmc6670l_pe66.oe66 (.text:ti_sysbios_xdcruntime_GateThreadSupport_enter__E)
                  8223a1a0    00000020     vlfft_evmc6670l_pe66.oe66 (.text:ti_sysbios_xdcruntime_GateThreadSupport_leave__E)
                  8223a1c0    00000020     vlfft_evmc6670l_pe66.oe66 (.text:ti_sysbios_xdcruntime_GateThreadSupport_query__E)
                  8223a1e0    00000020     vlfft_evmc6670l_pe66.oe66 (.text:xdc_iargToPtr)
                  8223a200    00000020     vlfft_evmc6670l_pe66.oe66 (.text:xdc_runtime_Error_check__E)
                  8223a220    00000020     vlfft_evmc6670l_pe66.oe66 (.text:xdc_runtime_Error_init__E)
                  8223a240    00000020     vlfft_evmc6670l_pe66.oe66 (.text:xdc_runtime_Error_print__E)
                  8223a260    00000020     vlfft_evmc6670l_pe66.oe66 (.text:xdc_runtime_GateNull_enter__E)
                  8223a280    00000020     ti.targets.rts6000.ae66 : GateNull.oe66 (.text:xdc_runtime_GateNull_enter__F)
                  8223a2a0    00000020     vlfft_evmc6670l_pe66.oe66 (.text:xdc_runtime_GateNull_leave__E)
                  8223a2c0    00000020     ti.targets.rts6000.ae66 : GateNull.oe66 (.text:xdc_runtime_GateNull_leave__F)
                  8223a2e0    00000020     vlfft_evmc6670l_pe66.oe66 (.text:xdc_runtime_GateNull_query__E)
                  8223a300    00000020     ti.targets.rts6000.ae66 : GateNull.oe66 (.text:xdc_runtime_GateNull_query__F)
                  8223a320    00000020     vlfft_evmc6670l_pe66.oe66 (.text:xdc_runtime_Gate_enterSystem__E)
                  8223a340    00000020     ti.targets.rts6000.ae66 : Gate.oe66 (.text:xdc_runtime_Gate_enterSystem__F)
                  8223a360    00000020     vlfft_evmc6670l_pe66.oe66 (.text:xdc_runtime_Gate_leaveSystem__E)
                  8223a380    00000020     vlfft_evmc6670l_pe66.oe66 (.text:xdc_runtime_Memory_HeapProxy_alloc__E)
                  8223a3a0    00000020     vlfft_evmc6670l_pe66.oe66 (.text:xdc_runtime_Memory_HeapProxy_free__E)
                  8223a3c0    00000020     vlfft_evmc6670l_pe66.oe66 (.text:xdc_runtime_Memory_alloc__E)
                  8223a3e0    00000020     vlfft_evmc6670l_pe66.oe66 (.text:xdc_runtime_Memory_calloc__E)
                  8223a400    00000020     vlfft_evmc6670l_pe66.oe66 (.text:xdc_runtime_Memory_free__E)
                  8223a420    00000020     vlfft_evmc6670l_pe66.oe66 (.text:xdc_runtime_Memory_getMaxDefaultTypeAlign__E)
                  8223a440    00000020     ti.targets.rts6000.ae66 : Memory.oe66 (.text:xdc_runtime_Memory_getMaxDefaultTypeAlign__F)
                  8223a460    00000020     vlfft_evmc6670l_pe66.oe66 (.text:xdc_runtime_Registry_findById__E)
                  8223a480    00000020     vlfft_evmc6670l_pe66.oe66 (.text:xdc_runtime_Startup_Module__startupDone__S)
                  8223a4a0    00000020     vlfft_evmc6670l_pe66.oe66 (.text:xdc_runtime_Startup_exec__E)
                  8223a4c0    00000020     vlfft_evmc6670l_pe66.oe66 (.text:xdc_runtime_Startup_reset__I)
                  8223a4e0    00000020     vlfft_evmc6670l_pe66.oe66 (.text:xdc_runtime_Startup_rtsDone__E)
                  8223a500    00000020     ti.targets.rts6000.ae66 : Startup.oe66 (.text:xdc_runtime_Startup_rtsDone__F)
                  8223a520    00000020     vlfft_evmc6670l_pe66.oe66 (.text:xdc_runtime_SysStd_abort__E)
                  8223a540    00000020     vlfft_evmc6670l_pe66.oe66 (.text:xdc_runtime_SysStd_exit__E)
                  8223a560    00000020     ti.targets.rts6000.ae66 : SysStd.oe66 (.text:xdc_runtime_SysStd_exit__F)
                  8223a580    00000020     vlfft_evmc6670l_pe66.oe66 (.text:xdc_runtime_SysStd_putch__E)
                  8223a5a0    00000020     ti.targets.rts6000.ae66 : SysStd.oe66 (.text:xdc_runtime_SysStd_putch__F)
                  8223a5c0    00000020     vlfft_evmc6670l_pe66.oe66 (.text:xdc_runtime_SysStd_ready__E)
                  8223a5e0    00000020     ti.targets.rts6000.ae66 : SysStd.oe66 (.text:xdc_runtime_SysStd_ready__F)
                  8223a600    00000020     vlfft_evmc6670l_pe66.oe66 (.text:xdc_runtime_System_Module_GateProxy_enter__E)
                  8223a620    00000020     vlfft_evmc6670l_pe66.oe66 (.text:xdc_runtime_System_Module_GateProxy_leave__E)
                  8223a640    00000020     vlfft_evmc6670l_pe66.oe66 (.text:xdc_runtime_System_Module_startup__E)
                  8223a660    00000020     ti.targets.rts6000.ae66 : System.oe66 (.text:xdc_runtime_System_Module_startup__F)
                  8223a680    00000020     vlfft_evmc6670l_pe66.oe66 (.text:xdc_runtime_System_SupportProxy_abort__E)
                  8223a6a0    00000020     vlfft_evmc6670l_pe66.oe66 (.text:xdc_runtime_System_SupportProxy_exit__E)
                  8223a6c0    00000020     vlfft_evmc6670l_pe66.oe66 (.text:xdc_runtime_System_SupportProxy_putch__E)
                  8223a6e0    00000020     vlfft_evmc6670l_pe66.oe66 (.text:xdc_runtime_System_SupportProxy_ready__E)
                  8223a700    00000020     vlfft_evmc6670l_pe66.oe66 (.text:xdc_runtime_System_abort__E)
                  8223a720    00000020     vlfft_evmc6670l_pe66.oe66 (.text:xdc_runtime_System_atexit__E)
                  8223a740    00000020     vlfft_evmc6670l_pe66.oe66 (.text:xdc_runtime_System_exit__E)
                  8223a760    00000020     ti.targets.rts6000.ae66 : System.oe66 (.text:xdc_runtime_System_exit__F)
                  8223a780    00000020                             : System.oe66 (.text:xdc_runtime_System_lastFxn__I)
                  8223a7a0    00000020     vlfft_evmc6670l_pe66.oe66 (.text:xdc_runtime_System_vsprintf__E)
                  8223a7c0    00000020     ti.targets.rts6000.ae66 : System.oe66 (.text:xdc_runtime_System_vsprintf__F)
                  8223a7e0    00000020     vlfft_evmc6670l_pe66.oe66 (.text:xdc_runtime_Text_cordText__E)
                  8223a800    00000020     vlfft_evmc6670l_pe66.oe66 (.text:xdc_runtime_Text_putLab__E)
                  8223a820    00000020     vlfft_evmc6670l_pe66.oe66 (.text:xdc_runtime_Text_putSite__E)
                  8223a840    00000020     vlfft_evmc6670l_pe66.oe66 (.text:xdc_runtime_Text_ropeText__E)
                  8223a860    00000020     vlfft_evmc6670l_pe66.oe66 (.text:xdc_runtime_Timestamp_SupportProxy_get32__E)
                  8223a880    00000020     vlfft_evmc6670l_pe66.oe66 (.text:xdc_runtime_Timestamp_get32__E)
                  8223a8a0    00000020     vlfft_evmc6670l_pe66.oe66 (.text:xdc_runtime_knl_GateThread_Module__startupDone__S)
                  8223a8c0    00000020     vlfft_evmc6670l_pe66.oe66 (.text:xdc_runtime_knl_GateThread_Proxy_Object__delete__S)
                  8223a8e0    00000020     vlfft_evmc6670l_pe66.oe66 (.text:xdc_runtime_knl_GateThread_Proxy_enter__E)
                  8223a900    00000020     vlfft_evmc6670l_pe66.oe66 (.text:xdc_runtime_knl_GateThread_Proxy_leave__E)
                  8223a920    00000020     vlfft_evmc6670l_pe66.oe66 (.text:xdc_runtime_knl_GateThread_Proxy_query__E)
                  8223a940    00000020     vlfft_evmc6670l_pe66.oe66 (.text:xdc_runtime_knl_GateThread_enter__E)
                  8223a960    00000020     ti.targets.rts6000.ae66 : GateThread.oe66 (.text:xdc_runtime_knl_GateThread_enter__F)
                  8223a980    00000020     vlfft_evmc6670l_pe66.oe66 (.text:xdc_runtime_knl_GateThread_leave__E)
                  8223a9a0    00000020     ti.targets.rts6000.ae66 : GateThread.oe66 (.text:xdc_runtime_knl_GateThread_leave__F)
                  8223a9c0    00000020     vlfft_evmc6670l_pe66.oe66 (.text:xdc_runtime_knl_GateThread_query__E)

.vecs      0    8223ac00    00000200     
                  8223ac00    00000200     vlfft_evmc6670l_pe66.oe66 (.vecs)


LINKER GENERATED COPY TABLES

__TI_cinit_table @ 00825000 records: 24, size/record: 8, table size: 192
	.fardata.1: load addr=008227fc, load size=000020f0 bytes, run addr=00817660, run size=00004948 bytes, compression=rle
	.fardata.5: load addr=008248ec, load size=00000338 bytes, run addr=0081c490, run size=00000518 bytes, compression=rle
	.fardata.2: load addr=00824c24, load size=00000230 bytes, run addr=0081bfb0, run size=000003e8 bytes, compression=rle
	.fardata.8: load addr=00824e54, load size=00000050 bytes, run addr=0081c9f0, run size=00000098 bytes, compression=rle
	.fardata.3: load addr=00824ea4, load size=0000004c bytes, run addr=0081c3a0, run size=00000078 bytes, compression=rle
	.neardata: load addr=00824ef0, load size=00000022 bytes, run addr=008227c0, run size=00000032 bytes, compression=rle
	.fardata.7: load addr=00824f14, load size=00000017 bytes, run addr=0081c9d0, run size=00000014 bytes, compression=rle
	.fardata.6: load addr=00824f2c, load size=00000016 bytes, run addr=0081c9b0, run size=00000018 bytes, compression=rle
	.rodata: load addr=00824f44, load size=0000000e bytes, run addr=008227f4, run size=00000008 bytes, compression=rle
	.fardata.9: load addr=00824f54, load size=0000000d bytes, run addr=0081ca90, run size=00000008 bytes, compression=rle
	.fardata.15: load addr=00824f70, load size=0000000a bytes, run addr=0081caf0, run size=00000004 bytes, compression=rle
	.fardata.16: load addr=00824f7c, load size=0000000a bytes, run addr=0081cb00, run size=00000004 bytes, compression=rle
	.fardata.10: load addr=00824f88, load size=00000009 bytes, run addr=0081caa0, run size=00000004 bytes, compression=rle
	.fardata.11: load addr=00824f94, load size=00000009 bytes, run addr=0081cab0, run size=00000004 bytes, compression=rle
	.fardata.12: load addr=00824fa0, load size=00000009 bytes, run addr=0081cac0, run size=00000004 bytes, compression=rle
	.fardata.13: load addr=00824fac, load size=00000009 bytes, run addr=0081cad0, run size=00000004 bytes, compression=rle
	.fardata.14: load addr=00824fb8, load size=00000009 bytes, run addr=0081cae0, run size=00000004 bytes, compression=rle
	.fardata.4: load addr=00824fc4, load size=00000009 bytes, run addr=0081c420, run size=00000068 bytes, compression=rle
	.bss: load addr=00824fd0, load size=00000008 bytes, run addr=008227b0, run size=00000010 bytes, compression=zero_init
	.externalMEM: load addr=00824fd8, load size=00000008 bytes, run addr=80200000, run size=02000000 bytes, compression=zero_init
	.far.1: load addr=00824fe0, load size=00000008 bytes, run addr=00800000, run size=00008014 bytes, compression=zero_init
	.far.2: load addr=00824fe8, load size=00000008 bytes, run addr=00808020, run size=0000f598 bytes, compression=zero_init
	.far.3: load addr=00824ff0, load size=00000008 bytes, run addr=008175c0, run size=00000096 bytes, compression=zero_init
	.internalMEM: load addr=00824ff8, load size=00000008 bytes, run addr=00826000, run size=0005a000 bytes, compression=zero_init


LINKER GENERATED HANDLER TABLE

__TI_handler_table @ 00824f64 records: 3, size/record: 4, table size: 12
	index: 0, handler: __TI_zero_init
	index: 1, handler: __TI_decompress_rle24
	index: 2, handler: __TI_decompress_none


GLOBAL SYMBOLS: SORTED ALPHABETICALLY BY Name 

address    name
--------   ----
822019c4   AddressAlignmentChecker
822366c0   Build_CompactOST_Header
82236700   Build_ExtendedOST_Header
82201904   Build_OST_Header
82238820   C$$EXIT
82236418   C$$IO$$
822352e0   Compose_Address
82201978   Compose_OST_MSG
82201360   DMA_checkStatus
82201564   DMA_postMsg
8220148c   DMA_serviceNextMsg
82215f60   DMAparamInit
82215a80   DSPF_sp_mixedRadix_fftSPxSP
8221d220   DSPF_sp_radix4_fftSPxSP
822200c0   EDMA3_DRV_create
82220360   EDMA3_DRV_disableTransfer
82223940   EDMA3_DRV_enableTransfer
8221d860   EDMA3_DRV_freeChannel
82220600   EDMA3_DRV_open
82204d40   EDMA3_DRV_requestChannel
82224780   EDMA3_DRV_setDestParams
8222c2c0   EDMA3_DRV_setPaRAM
822249c0   EDMA3_DRV_setSrcParams
8222b7c0   EDMA3_DRV_setTransferParams
8222c400   EDMA3_DRV_waitAndClearTcc
008227f8   EDMA3_MAX_RM_INSTANCES
82205980   EDMA3_RM_allocResource
8221bda0   EDMA3_RM_create
8221a280   EDMA3_RM_freeResource
82210c20   EDMA3_RM_open
8222a140   EDMA3_RM_registerTccCb
8222c540   EDMA3_RM_unregisterTccCb
82236740   Edma3_CacheFlush
82235220   GateMP_Params_init
8222c680   GateMP_close
82226420   GateMP_enter
82226620   GateMP_leave
8221e460   GateMP_openByAddr
8221cba0   GateMP_sharedMemReq
82232d20   HOSTclose
8222e820   HOSTlseek
8222fb20   HOSTopen
82230e60   HOSTread
82228dc0   HOSTrename
82230f20   HOSTunlink
82230fe0   HOSTwrite
822339a0   HeapBufMP_Params_init
8222fc00   HeapBufMP_create
8221d540   HeapBufMP_open
82228180   HeapBufMP_openByAddr
82216920   HeapBufMP_sharedMemReq
82235280   HeapMemMP_Params_init
822310a0   HeapMemMP_create
82228340   HeapMemMP_openByAddr
8221c140   HeapMemMP_sharedMemReq
82208380   Ipc_attach
008227bc   Ipc_sr0MemorySetup
822208a0   Ipc_start
82231160   ListMP_create
82211800   ListMP_getHead
82226820   ListMP_openByAddr
82219180   ListMP_putTail
82223ba0   ListMP_sharedMemReq
8221c4c0   MessageQ_alloc
82232dc0   MessageQ_create
82225980   MessageQ_get
8221f880   MessageQ_open
8220b000   MessageQ_put
8222c7c0   MessageQ_registerHeap
82225ba0   MultiProc_getId
82238640   MultiProc_self
8222a2c0   MultiProc_setLocalId
8220f2e0   NameServer_add
822145a0   NameServer_get
82220b40   NameServer_getLocal
8222c900   Notify_attach
8222a440   Notify_intLineRegistered
82211220   Notify_registerEventSingle
8220ffe0   Notify_sendEvent
82211dc0   Notify_unregisterEventSingle
82201a18   STMExport_IntMsg
82200000   STMExport_putMeta
82232ef4   STMLog_CallBack
82232eec   STMLog_EnableBlkMode
82232ee4   STMLog_EnableBufMode
82232ee0   STMLog_EnableCIOMode
82232ed8   STMLog_ErrHandler
82232e6c   STMLog_SendInfo
82232e68   STMLog_checkFlush
82232e60   STMLog_exit
008227ec   STMXport_ByteCnt
8220e500   STMXport_close
82200ae0   STMXport_flush
82200a10   STMXport_getBufInfo
82203fa0   STMXport_getVersion
82200420   STMXport_logMsg
82200690   STMXport_logMsg0
822007b4   STMXport_logMsg1
822008d8   STMXport_logMsg2
8220dea0   STMXport_open
8220e080   STMXport_printf
82203fec   STMXport_printfV
8220e178   STMXport_putBuf
822002f8   STMXport_putByte
82204aec   STMXport_putMessage
8220e0c0   STMXport_putMsg
822001d4   STMXport_putShort
822000b0   STMXport_putWord
82204010   STM_printfV
82200be8   STM_putBufCPU
82201198   STM_putDMA
82200f2c   STM_putMsgCPU
82228f60   SharedRegion_getCacheLineSize
8221e740   SharedRegion_getEntry
82229100   SharedRegion_getHeap
8221ea20   SharedRegion_getPtr
82222040   SharedRegion_getSRPtr
822292a0   SharedRegion_isCacheEnabled
822380c0   TSC_enable
822380c8   TSC_read
0081c6b0   TSK_idle
8220a7a0   VLFFT_1stIter
822134c0   VLFFT_2ndIter
00800000   __ASM__
008225c0   __CIOBUF_
008000a0   __ISA__
008000c0   __PLAT__
008000f0   __TARG__
00825000   __TI_CINIT_Base
008250c0   __TI_CINIT_Limit
00824f64   __TI_Handler_Table_Base
00824f70   __TI_Handler_Table_Limit
008225c0   __TI_STACK_END
00001000   __TI_STACK_SIZE
008227b0   __TI_STATIC_BASE
00000001   __TI_args_main
82238860   __TI_decompress_none
82238880   __TI_decompress_rle24
0081c6fc   __TI_enable_exit_profile_output
ffffffff   __TI_pprof_out_hndl
ffffffff   __TI_prof_data_size
ffffffff   __TI_prof_data_start
82230060   __TI_zero_init
00800120   __TRDR__
ffffffff   __binit__
82235340   __c6xabi_abort_msg
82212380   __c6xabi_divd
8222fce0   __c6xabi_divi
8222dbc0   __c6xabi_divlli
822312e0   __c6xabi_divu
82229440   __c6xabi_divul
82224c00   __c6xabi_divull
82232f00   __c6xabi_fltulld
822353a0   __c6xabi_frcmpyd_div
82236780   __c6xabi_isinf
82233aa0   __c6xabi_llshl
82235400   __c6xabi_llshru
82238660   __c6xabi_negll
82232fa0   __c6xabi_nround
822313a0   __c6xabi_remi
82233040   __c6xabi_remu
82238680   __c6xabi_trunc
ffffffff   __c_args__
822386a0   __cxa_atexit
82231220   __cxa_finalize
822386c0   __cxa_ia64_exit
8222fce0   __divi
822312e0   __divu
822313a0   __remi
82233040   __remu
822386e0   __xdc__init
0081b628   __xdc__init__addr
82236800   _args_main
00000000   _argsize
8222ca40   _auto_init_elf
822330e0   _c_int00
82231460   _cleanup
0081c6f4   _cleanup_ptr
0081fc20   _ctypes_
82231520   _doflush
0081c6f8   _dtors_ptr
0081a6f8   _ft_end
0081bcb0   _ftable
00819e68   _lock
82238700   _nop
82218000   _printfi
822387a0   _register_lock
822387c0   _register_unlock
008215c0   _stack
82235460   _subcull
008173a0   _tmpnams
00819e6c   _unlock
8222de00   _wrt_ok
82238820   abort
82238840   atexit
8222fea0   atoi
ffffffff   binit
82214fa0   broadcastMessages
82214f00   broadcastMessagesToActiveCores
82214e70   broadcastMessagesToAllCores
82233d20   cTools_memAlloc
82236940   cTools_memFree
82233f00   cTools_memMap
82233ef8   cTools_memUnMap
0081ca20   ccErrorInt
0081c490   ccXferCompInt
0081c4f0   ccXferHostInt
82206c40   clearRegisters
8222ff80   close
82233ef0   closeSTM
8221e2a8   compare_float
8221e234   copy_float
008175e0   core0QueueName
008175f0   core1QueueName
00817600   core2QueueName
00817610   core3QueueName
00817620   core4QueueName
00817630   core5QueueName
00817640   core6QueueName
00817650   core7QueueName
8221fe00   cos
00817660   defInstInitConfig
822388a0   determineProcId
822295e0   dft
008088d0   drvInstance
00808020   drvObj
008227b0   dsp_num
0080a7f0   edma3DrvChBoundRes
0081c550   edma3ErrHostInt
008195e0   edma3GblCfgParams
82233ba0   edma3MemCpy
822388c0   edma3MemZero
008227e0   edma3NumPaRAMSets
82230140   edma3OsProtectEntry
822315e0   edma3OsProtectExit
82233c20   edma3OsSemCreate
822368c0   edma3OsSemGive
82236900   edma3OsSemTake
822388e0   edma3ParamCpy
0080fa10   edma3_dma_ch_max_val
0080fa30   edma3_link_ch_max_val
0080fa20   edma3_link_ch_min_val
0080fa60   edma3_log_ch_max_val
0080fa50   edma3_qdma_ch_max_val
0080fa40   edma3_qdma_ch_min_val
82227820   edma3init
8220de60   edmaPoll
8220de28   edmaTrigger
82230220   exit
8222df20   fclose
8222e920   fflush
00836000   fftInBuf
00838000   fftOutBuf
82233ca0   fprintf
8222ccc0   fputc
8221db60   fputs
82236940   free
822316a0   fseek
0081c8b0   gblCfgReqdArray
82202cf0   genFFTTestData
82202390   genTestData
82201b40   genTestData2
8222294c   genTwiddle
82214da0   getAllMessages
008227d0   hwiInterrupt
00840000   inBuf
80200000   inData
82214b00   initMessageQueues
82233ea0   initializeSTM
82238900   isGblConfigRequired
82238920   lisrEdma3CCErrHandler0
82238940   lisrEdma3ComplHandler0
82238960   lisrEdma3TC0ErrHandler0
82238980   lisrEdma3TC1ErrHandler0
822389a0   lisrEdma3TC2ErrHandler0
822389c0   lisrEdma3TC3ErrHandler0
822389e0   lisrEdma3TC4ErrHandler0
82238a00   lisrEdma3TC5ErrHandler0
82238a20   lisrEdma3TC6ErrHandler0
82238a40   lisrEdma3TC7ErrHandler0
82236980   llabs
008175c0   localQueueName
82231760   lseek
82230300   ltoa
82206c8c   main
82233d20   malloc
822354c0   memccpy
822334a0   memcpy
822303e0   memset
82233540   modf
822228c0   multTwiddle_vec
822227c0   multTwiddle_vec_1
8222cf40   multTwiddle_vec_1_sa
008175d0   nextQueueName
008227f4   numEdma3Instances
0081ca40   numEdma3Tc
00860000   outBuf
80a00000   outData
008227b8   pSTMHandle
82233da0   printf
0081c8d0   ptrEdma3TcIsrHandler
008227cc   ptrInitCfgArray
008227c8   ptrRMIArray
82238a80   putc
82238aa0   putchar
82233e20   readmsg
008227b4   region_id
82223e00   registerEdma3Interrupts
82234ea0   remove
008227c0   resMgrInstance
00815340   resMgrInstanceArray
0080fa70   resMgrObj
00819e70   sampleEdma3GblCfgParams
00818620   sampleInstInitConfig
0081ca50   semHandle
82206c0c   setMyId
8222a8c0   setvbuf
82222a40   sin
82236a00   strchr
82236a40   strlen
0081c5b0   tcErrorInt
81a00000   testData
0082008c   ti_sdo_ipc_GateMP_A_invalidClose__C
0082026c   ti_sdo_ipc_GateMP_A_invalidDelete__C
00820e2c   ti_sdo_ipc_GateMP_E_gateUnavailable__C
00820e4c   ti_sdo_ipc_GateMP_E_localGate__C
82209f40   ti_sdo_ipc_GateMP_Instance_finalize__F
82202d80   ti_sdo_ipc_GateMP_Instance_init__F
00820e6c   ti_sdo_ipc_GateMP_LM_create__C
00820e8c   ti_sdo_ipc_GateMP_LM_delete__C
00820eac   ti_sdo_ipc_GateMP_LM_enter__C
00820ec4   ti_sdo_ipc_GateMP_LM_leave__C
00820ec8   ti_sdo_ipc_GateMP_LM_open__C
0081a700   ti_sdo_ipc_GateMP_Module_State_0_remoteCustom1Gates__A
0081caa0   ti_sdo_ipc_GateMP_Module_State_0_remoteCustom2Gates__A
0081c1a0   ti_sdo_ipc_GateMP_Module_State_0_remoteSystemGates__A
00820ecc   ti_sdo_ipc_GateMP_Module__diagsEnabled__C
00820ee4   ti_sdo_ipc_GateMP_Module__diagsIncluded__C
00820ee8   ti_sdo_ipc_GateMP_Module__diagsMask__C
008214c0   ti_sdo_ipc_GateMP_Module__id__C
008214c4   ti_sdo_ipc_GateMP_Module__loggerDefined__C
00820eec   ti_sdo_ipc_GateMP_Module__loggerFxn2__C
00820f04   ti_sdo_ipc_GateMP_Module__loggerFxn4__C
00820f08   ti_sdo_ipc_GateMP_Module__loggerObj__C
0081af00   ti_sdo_ipc_GateMP_Module__root__V
0081af08   ti_sdo_ipc_GateMP_Module__state__V
008208bc   ti_sdo_ipc_GateMP_Object__DESC__C
008203e0   ti_sdo_ipc_GateMP_Object__PARAMS__C
822319a0   ti_sdo_ipc_GateMP_Object__create__S
82235520   ti_sdo_ipc_GateMP_Object__delete__S
82236a80   ti_sdo_ipc_GateMP_Params__init__S
82236ac0   ti_sdo_ipc_GateMP_RemoteCustom1Proxy_Object__create__S
82238ac0   ti_sdo_ipc_GateMP_RemoteCustom1Proxy_Object__delete__S
82238ae0   ti_sdo_ipc_GateMP_RemoteCustom1Proxy_Params__init__S
82238b00   ti_sdo_ipc_GateMP_RemoteCustom1Proxy_Proxy__abstract__S
82238b20   ti_sdo_ipc_GateMP_RemoteCustom1Proxy_Proxy__delegate__S
82238b40   ti_sdo_ipc_GateMP_RemoteCustom1Proxy_getReservedMask__E
82238b60   ti_sdo_ipc_GateMP_RemoteCustom1Proxy_sharedMemReq__E
82236b00   ti_sdo_ipc_GateMP_RemoteCustom2Proxy_Object__create__S
82238b80   ti_sdo_ipc_GateMP_RemoteCustom2Proxy_Object__delete__S
82238ba0   ti_sdo_ipc_GateMP_RemoteCustom2Proxy_Params__init__S
82238bc0   ti_sdo_ipc_GateMP_RemoteCustom2Proxy_Proxy__abstract__S
82238be0   ti_sdo_ipc_GateMP_RemoteCustom2Proxy_Proxy__delegate__S
82238c00   ti_sdo_ipc_GateMP_RemoteCustom2Proxy_getReservedMask__E
82238c20   ti_sdo_ipc_GateMP_RemoteCustom2Proxy_sharedMemReq__E
82236b40   ti_sdo_ipc_GateMP_RemoteSystemProxy_Object__create__S
82238c40   ti_sdo_ipc_GateMP_RemoteSystemProxy_Object__delete__S
82238c60   ti_sdo_ipc_GateMP_RemoteSystemProxy_Params__init__S
82238c80   ti_sdo_ipc_GateMP_RemoteSystemProxy_Proxy__abstract__S
82238ca0   ti_sdo_ipc_GateMP_RemoteSystemProxy_Proxy__delegate__S
82238cc0   ti_sdo_ipc_GateMP_RemoteSystemProxy_getReservedMask__E
82238ce0   ti_sdo_ipc_GateMP_RemoteSystemProxy_sharedMemReq__E
82238d00   ti_sdo_ipc_GateMP_attach__E
82227a00   ti_sdo_ipc_GateMP_attach__F
8222b920   ti_sdo_ipc_GateMP_createLocal__F
82227be0   ti_sdo_ipc_GateMP_getFreeResource__I
82238d20   ti_sdo_ipc_GateMP_getRegion0ReservedSize__E
82231a60   ti_sdo_ipc_GateMP_getRegion0ReservedSize__F
82238d40   ti_sdo_ipc_GateMP_getSharedAddr__E
82238d60   ti_sdo_ipc_GateMP_getSharedAddr__F
82229780   ti_sdo_ipc_GateMP_openRegion0Reserved__F
82218460   ti_sdo_ipc_GateMP_setRegion0Reserved__F
82238d80   ti_sdo_ipc_GateMP_start__E
8222eb20   ti_sdo_ipc_GateMP_start__F
00820f0c   ti_sdo_ipc_Ipc_A_addrNotCacheAligned__C
00820f24   ti_sdo_ipc_Ipc_A_addrNotInSharedRegion__C
00820f28   ti_sdo_ipc_Ipc_A_internal__C
00820f2c   ti_sdo_ipc_Ipc_A_invArgument__C
00820f9c   ti_sdo_ipc_Ipc_A_invParam__C
00820fac   ti_sdo_ipc_Ipc_A_nullArgument__C
00820fbc   ti_sdo_ipc_Ipc_A_nullPointer__C
00820fc8   ti_sdo_ipc_Ipc_E_internal__C
00820fcc   ti_sdo_ipc_Ipc_E_nameFailed__C
00820fd8   ti_sdo_ipc_Ipc_E_versionMismatch__C
0081c610   ti_sdo_ipc_Ipc_Module_State_0_procEntry__A
00820fdc   ti_sdo_ipc_Ipc_Module__diagsEnabled__C
00820fe0   ti_sdo_ipc_Ipc_Module__diagsIncluded__C
00820fe4   ti_sdo_ipc_Ipc_Module__diagsMask__C
008214c8   ti_sdo_ipc_Ipc_Module__id__C
0081af50   ti_sdo_ipc_Ipc_Module__state__V
008214cc   ti_sdo_ipc_Ipc_generateSlaveDataForHost__C
00820fe8   ti_sdo_ipc_Ipc_numUserFxns__C
822188c0   ti_sdo_ipc_Ipc_procSyncFinish__I
82215040   ti_sdo_ipc_Ipc_procSyncStart__I
00820fec   ti_sdo_ipc_Ipc_procSync__C
00820ff0   ti_sdo_ipc_Ipc_userFxns__C
82224060   ti_sdo_ipc_ListMP_Instance_finalize__F
822096c0   ti_sdo_ipc_ListMP_Instance_init__F
00820ff4   ti_sdo_ipc_ListMP_Module__diagsEnabled__C
00820ff8   ti_sdo_ipc_ListMP_Module__diagsIncluded__C
00820ffc   ti_sdo_ipc_ListMP_Module__diagsMask__C
008214d0   ti_sdo_ipc_ListMP_Module__id__C
0081af5c   ti_sdo_ipc_ListMP_Module__root__V
0081af64   ti_sdo_ipc_ListMP_Module__state__V
008208dc   ti_sdo_ipc_ListMP_Object__DESC__C
008204d4   ti_sdo_ipc_ListMP_Object__PARAMS__C
82231b20   ti_sdo_ipc_ListMP_Object__create__S
82235580   ti_sdo_ipc_ListMP_Object__delete__S
82236b80   ti_sdo_ipc_ListMP_Params__init__S
00821000   ti_sdo_ipc_MessageQ_A_heapIdInvalid__C
00821004   ti_sdo_ipc_MessageQ_A_invalidMsg__C
00821008   ti_sdo_ipc_MessageQ_A_invalidObj__C
0082100c   ti_sdo_ipc_MessageQ_A_invalidParam__C
00821010   ti_sdo_ipc_MessageQ_A_invalidQueueId__C
00821014   ti_sdo_ipc_MessageQ_A_procIdInvalid__C
00821018   ti_sdo_ipc_MessageQ_A_unregisteredTransport__C
0082101c   ti_sdo_ipc_MessageQ_E_maxReached__C
00821020   ti_sdo_ipc_MessageQ_E_nameFailed__C
00821024   ti_sdo_ipc_MessageQ_Instance_State_highList__O
00821028   ti_sdo_ipc_MessageQ_Instance_State_normalList__O
822252c0   ti_sdo_ipc_MessageQ_Instance_finalize__F
82218d20   ti_sdo_ipc_MessageQ_Instance_init__F
0082102c   ti_sdo_ipc_MessageQ_LM_alloc__C
00821030   ti_sdo_ipc_MessageQ_LM_get__C
00821034   ti_sdo_ipc_MessageQ_LM_putLocal__C
0081c8f0   ti_sdo_ipc_MessageQ_Module_State_0_heaps__A
0081c910   ti_sdo_ipc_MessageQ_Module_State_0_transports__A
00821038   ti_sdo_ipc_MessageQ_Module__diagsEnabled__C
0082103c   ti_sdo_ipc_MessageQ_Module__diagsIncluded__C
00821040   ti_sdo_ipc_MessageQ_Module__diagsMask__C
008214d4   ti_sdo_ipc_MessageQ_Module__id__C
008214d8   ti_sdo_ipc_MessageQ_Module__loggerDefined__C
00821044   ti_sdo_ipc_MessageQ_Module__loggerFxn4__C
00821048   ti_sdo_ipc_MessageQ_Module__loggerObj__C
0081af68   ti_sdo_ipc_MessageQ_Module__root__V
0081af70   ti_sdo_ipc_MessageQ_Module__state__V
82238da0   ti_sdo_ipc_MessageQ_Module_startup__E
8222e160   ti_sdo_ipc_MessageQ_Module_startup__F
008208fc   ti_sdo_ipc_MessageQ_Object__DESC__C
00820c9c   ti_sdo_ipc_MessageQ_Object__PARAMS__C
0082104c   ti_sdo_ipc_MessageQ_Object__count__C
82231be0   ti_sdo_ipc_MessageQ_Object__create__S
822355e0   ti_sdo_ipc_MessageQ_Object__get__S
00821050   ti_sdo_ipc_MessageQ_Object__heap__C
00821054   ti_sdo_ipc_MessageQ_Object__table__C
82236bc0   ti_sdo_ipc_MessageQ_Params__init__S
82238dc0   ti_sdo_ipc_MessageQ_SetupTransportProxy_attach__E
82238de0   ti_sdo_ipc_MessageQ_SetupTransportProxy_isRegistered__E
82238e00   ti_sdo_ipc_MessageQ_SetupTransportProxy_sharedMemReq__E
00821058   ti_sdo_ipc_MessageQ_maxRuntimeEntries__C
82236c00   ti_sdo_ipc_MessageQ_registerTransport__E
8222abc0   ti_sdo_ipc_MessageQ_registerTransport__F
82238e20   ti_sdo_ipc_MessageQ_unregisterTransport__E
8222ba80   ti_sdo_ipc_MessageQ_unregisterTransport__F
0082105c   ti_sdo_ipc_Notify_A_alreadyRegistered__C
00821060   ti_sdo_ipc_Notify_A_internal__C
00821064   ti_sdo_ipc_Notify_A_invArgument__C
00821068   ti_sdo_ipc_Notify_A_notRegistered__C
0082106c   ti_sdo_ipc_Notify_A_reservedEvent__C
8222ec20   ti_sdo_ipc_Notify_Instance_finalize__F
8221a6a0   ti_sdo_ipc_Notify_Instance_init__F
82238e40   ti_sdo_ipc_Notify_Module_GateProxy_enter__E
82238e60   ti_sdo_ipc_Notify_Module_GateProxy_leave__E
0081cab0   ti_sdo_ipc_Notify_Module_State_0_notifyHandles_0__A
0081cac0   ti_sdo_ipc_Notify_Module_State_0_notifyHandles_1__A
0081cad0   ti_sdo_ipc_Notify_Module_State_0_notifyHandles_2__A
0081cae0   ti_sdo_ipc_Notify_Module_State_0_notifyHandles_3__A
0081c9f0   ti_sdo_ipc_Notify_Module_State_0_notifyHandles__A
00821070   ti_sdo_ipc_Notify_Module__diagsEnabled__C
00821074   ti_sdo_ipc_Notify_Module__diagsIncluded__C
00821078   ti_sdo_ipc_Notify_Module__diagsMask__C
0082107c   ti_sdo_ipc_Notify_Module__gateObj__C
008214dc   ti_sdo_ipc_Notify_Module__id__C
0081af8c   ti_sdo_ipc_Notify_Module__root__V
0081af94   ti_sdo_ipc_Notify_Module__state__V
82238e80   ti_sdo_ipc_Notify_Module_startup__E
8222ad40   ti_sdo_ipc_Notify_Module_startup__F
0082091c   ti_sdo_ipc_Notify_Object__DESC__C
00820cf0   ti_sdo_ipc_Notify_Object__PARAMS__C
822304c0   ti_sdo_ipc_Notify_Object__create__S
00821080   ti_sdo_ipc_Notify_Object__heap__C
82238ea0   ti_sdo_ipc_Notify_SetupProxy_attach__E
82238ec0   ti_sdo_ipc_Notify_SetupProxy_numIntLines__E
82238ee0   ti_sdo_ipc_Notify_SetupProxy_sharedMemReq__E
82238f00   ti_sdo_ipc_Notify_exec__E
8222d080   ti_sdo_ipc_Notify_exec__F
00821084   ti_sdo_ipc_Notify_numEvents__C
008214e0   ti_sdo_ipc_Notify_numLines__C
008214e4   ti_sdo_ipc_Notify_reservedEvents__C
00821088   ti_sdo_ipc_SharedRegion_A_addrOutOfRange__C
0082108c   ti_sdo_ipc_SharedRegion_A_idTooLarge__C
00821090   ti_sdo_ipc_SharedRegion_A_noHeap__C
00821094   ti_sdo_ipc_SharedRegion_A_region0Invalid__C
00821098   ti_sdo_ipc_SharedRegion_A_regionInvalid__C
0082109c   ti_sdo_ipc_SharedRegion_A_reserveTooMuch__C
008210a0   ti_sdo_ipc_SharedRegion_INVALIDSRPTR__C
0081c110   ti_sdo_ipc_SharedRegion_Module_State_0_regions__A
008210a4   ti_sdo_ipc_SharedRegion_Module__diagsEnabled__C
008210a8   ti_sdo_ipc_SharedRegion_Module__diagsIncluded__C
008210ac   ti_sdo_ipc_SharedRegion_Module__diagsMask__C
008214e8   ti_sdo_ipc_SharedRegion_Module__id__C
0081af9c   ti_sdo_ipc_SharedRegion_Module__state__V
82238f20   ti_sdo_ipc_SharedRegion_attach__E
8222ed20   ti_sdo_ipc_SharedRegion_attach__F
008210b0   ti_sdo_ipc_SharedRegion_cacheLineSize__C
82238f40   ti_sdo_ipc_SharedRegion_clearReservedMemory__E
8222ee20   ti_sdo_ipc_SharedRegion_clearReservedMemory__F
008214ec   ti_sdo_ipc_SharedRegion_numEntries__C
008210b4   ti_sdo_ipc_SharedRegion_numOffsetBits__C
008210b8   ti_sdo_ipc_SharedRegion_offsetMask__C
82238f60   ti_sdo_ipc_SharedRegion_reserveMemory__E
8221aea0   ti_sdo_ipc_SharedRegion_reserveMemory__F
82238f80   ti_sdo_ipc_SharedRegion_start__E
82212f00   ti_sdo_ipc_SharedRegion_start__F
008214f0   ti_sdo_ipc_SharedRegion_translate__C
008210bc   ti_sdo_ipc_family_c647x_Interrupt_INTERDSPINT__C
008210c0   ti_sdo_ipc_family_c647x_Interrupt_IPCAR0__C
008210c4   ti_sdo_ipc_family_c647x_Interrupt_IPCGR0__C
008210c8   ti_sdo_ipc_family_c647x_Interrupt_KICK0__C
008210cc   ti_sdo_ipc_family_c647x_Interrupt_KICK1__C
0081c930   ti_sdo_ipc_family_c647x_Interrupt_Module_State_0_fxnTable__A
0081afa0   ti_sdo_ipc_family_c647x_Interrupt_Module__state__V
82238fa0   ti_sdo_ipc_family_c647x_Interrupt_Module_startup__E
8222ef20   ti_sdo_ipc_family_c647x_Interrupt_Module_startup__F
008214f4   ti_sdo_ipc_family_c647x_Interrupt_enableKick__C
82236c40   ti_sdo_ipc_family_c647x_Interrupt_intClear__E
82238fc0   ti_sdo_ipc_family_c647x_Interrupt_intDisable__E
82238fe0   ti_sdo_ipc_family_c647x_Interrupt_intEnable__E
8222e280   ti_sdo_ipc_family_c647x_Interrupt_intRegister__E
82236c80   ti_sdo_ipc_family_c647x_Interrupt_intSend__E
82231ca0   ti_sdo_ipc_family_c647x_Interrupt_intShmStub__I
822335e0   ti_sdo_ipc_family_c647x_Interrupt_intUnregister__E
008210d0   ti_sdo_ipc_family_c647x_MultiProcSetup_A_invalidProcessor__C
008210d4   ti_sdo_ipc_family_c647x_MultiProcSetup_Module__diagsEnabled__C
008210d8   ti_sdo_ipc_family_c647x_MultiProcSetup_Module__diagsIncluded__C
008210dc   ti_sdo_ipc_family_c647x_MultiProcSetup_Module__diagsMask__C
008214f8   ti_sdo_ipc_family_c647x_MultiProcSetup_Module__id__C
82227420   ti_sdo_ipc_family_c647x_MultiProcSetup_init__I
00820fc0   ti_sdo_ipc_family_c647x_MultiProcSetup_procMap__A
008210e0   ti_sdo_ipc_family_c647x_MultiProcSetup_procMap__C
822305a0   ti_sdo_ipc_family_c647x_NotifyCircSetup_attach__E
008210e4   ti_sdo_ipc_family_c647x_NotifyCircSetup_dspIntVectId__C
82239000   ti_sdo_ipc_family_c647x_NotifyCircSetup_numIntLines__E
82235640   ti_sdo_ipc_family_c647x_NotifyCircSetup_sharedMemReq__E
008210e8   ti_sdo_ipc_gates_GateHWSem_A_invSemNum__C
82236cc0   ti_sdo_ipc_gates_GateHWSem_Handle__label__S
8222bbe0   ti_sdo_ipc_gates_GateHWSem_Instance_init__F
00820500   ti_sdo_ipc_gates_GateHWSem_Module__FXNS__C
008210ec   ti_sdo_ipc_gates_GateHWSem_Module__diagsEnabled__C
008210f0   ti_sdo_ipc_gates_GateHWSem_Module__diagsIncluded__C
008210f4   ti_sdo_ipc_gates_GateHWSem_Module__diagsMask__C
008214fc   ti_sdo_ipc_gates_GateHWSem_Module__id__C
0081afa8   ti_sdo_ipc_gates_GateHWSem_Module__root__V
82239020   ti_sdo_ipc_gates_GateHWSem_Module_startup__E
8222f020   ti_sdo_ipc_gates_GateHWSem_Module_startup__F
0082093c   ti_sdo_ipc_gates_GateHWSem_Object__DESC__C
00820674   ti_sdo_ipc_gates_GateHWSem_Object__PARAMS__C
82233f20   ti_sdo_ipc_gates_GateHWSem_Object__create__S
82236d00   ti_sdo_ipc_gates_GateHWSem_Object__delete__S
82236d40   ti_sdo_ipc_gates_GateHWSem_Params__init__S
008210f8   ti_sdo_ipc_gates_GateHWSem_baseAddr__C
82230680   ti_sdo_ipc_gates_GateHWSem_enter__E
82239040   ti_sdo_ipc_gates_GateHWSem_getReservedMask__E
822356a0   ti_sdo_ipc_gates_GateHWSem_leave__E
008210fc   ti_sdo_ipc_gates_GateHWSem_numSems__C
82239060   ti_sdo_ipc_gates_GateHWSem_query__E
82239080   ti_sdo_ipc_gates_GateHWSem_query__F
00821100   ti_sdo_ipc_gates_GateHWSem_reservedMaskArr__A
00821104   ti_sdo_ipc_gates_GateHWSem_reservedMaskArr__C
822390a0   ti_sdo_ipc_gates_GateHWSem_sharedMemReq__E
00821108   ti_sdo_ipc_gates_GateMPSupportNull_A_invalidAction__C
82236d80   ti_sdo_ipc_gates_GateMPSupportNull_Handle__label__S
822390c0   ti_sdo_ipc_gates_GateMPSupportNull_Instance_init__F
0082052c   ti_sdo_ipc_gates_GateMPSupportNull_Module__FXNS__C
0082110c   ti_sdo_ipc_gates_GateMPSupportNull_Module__diagsEnabled__C
00821110   ti_sdo_ipc_gates_GateMPSupportNull_Module__diagsIncluded__C
00821114   ti_sdo_ipc_gates_GateMPSupportNull_Module__diagsMask__C
00821500   ti_sdo_ipc_gates_GateMPSupportNull_Module__id__C
0081afb0   ti_sdo_ipc_gates_GateMPSupportNull_Module__root__V
0082095c   ti_sdo_ipc_gates_GateMPSupportNull_Object__DESC__C
00820698   ti_sdo_ipc_gates_GateMPSupportNull_Object__PARAMS__C
82233fa0   ti_sdo_ipc_gates_GateMPSupportNull_Object__create__S
82236dc0   ti_sdo_ipc_gates_GateMPSupportNull_Object__delete__S
82236e00   ti_sdo_ipc_gates_GateMPSupportNull_Params__init__S
00821118   ti_sdo_ipc_gates_GateMPSupportNull_action__C
8222f120   ti_sdo_ipc_gates_GateMPSupportNull_enter__E
822390e0   ti_sdo_ipc_gates_GateMPSupportNull_getReservedMask__E
8222f220   ti_sdo_ipc_gates_GateMPSupportNull_leave__E
82239100   ti_sdo_ipc_gates_GateMPSupportNull_query__E
82239120   ti_sdo_ipc_gates_GateMPSupportNull_query__F
82239140   ti_sdo_ipc_gates_GateMPSupportNull_sharedMemReq__E
0082111c   ti_sdo_ipc_gates_GatePeterson_E_gateRemotelyOpened__C
82236e40   ti_sdo_ipc_gates_GatePeterson_Handle__label__S
82235700   ti_sdo_ipc_gates_GatePeterson_Instance_finalize__F
82216dc0   ti_sdo_ipc_gates_GatePeterson_Instance_init__F
00820558   ti_sdo_ipc_gates_GatePeterson_Module__FXNS__C
00821120   ti_sdo_ipc_gates_GatePeterson_Module__diagsEnabled__C
00821124   ti_sdo_ipc_gates_GatePeterson_Module__diagsIncluded__C
00821128   ti_sdo_ipc_gates_GatePeterson_Module__diagsMask__C
00821504   ti_sdo_ipc_gates_GatePeterson_Module__id__C
0081afb8   ti_sdo_ipc_gates_GatePeterson_Module__root__V
0082097c   ti_sdo_ipc_gates_GatePeterson_Object__DESC__C
008206bc   ti_sdo_ipc_gates_GatePeterson_Object__PARAMS__C
82231d60   ti_sdo_ipc_gates_GatePeterson_Object__create__S
82235760   ti_sdo_ipc_gates_GatePeterson_Object__delete__S
82236e80   ti_sdo_ipc_gates_GatePeterson_Params__init__S
8222aec0   ti_sdo_ipc_gates_GatePeterson_enter__E
82239160   ti_sdo_ipc_gates_GatePeterson_getReservedMask__E
82233680   ti_sdo_ipc_gates_GatePeterson_leave__E
0082112c   ti_sdo_ipc_gates_GatePeterson_numInstances__C
82239180   ti_sdo_ipc_gates_GatePeterson_query__E
822391a0   ti_sdo_ipc_gates_GatePeterson_query__F
822357c0   ti_sdo_ipc_gates_GatePeterson_sharedMemReq__E
00821130   ti_sdo_ipc_heaps_HeapBufMP_A_badAlignment__C
00821134   ti_sdo_ipc_heaps_HeapBufMP_A_invBlockFreed__C
00821138   ti_sdo_ipc_heaps_HeapBufMP_E_alignTooLarge__C
0082113c   ti_sdo_ipc_heaps_HeapBufMP_E_exactFail__C
00821140   ti_sdo_ipc_heaps_HeapBufMP_E_noBlocksLeft__C
00821144   ti_sdo_ipc_heaps_HeapBufMP_E_sizeTooLarge__C
82236ec0   ti_sdo_ipc_heaps_HeapBufMP_Handle__label__S
82221860   ti_sdo_ipc_heaps_HeapBufMP_Instance_finalize__F
8220b840   ti_sdo_ipc_heaps_HeapBufMP_Instance_init__F
00820584   ti_sdo_ipc_heaps_HeapBufMP_Module__FXNS__C
00821148   ti_sdo_ipc_heaps_HeapBufMP_Module__diagsEnabled__C
0082114c   ti_sdo_ipc_heaps_HeapBufMP_Module__diagsIncluded__C
00821150   ti_sdo_ipc_heaps_HeapBufMP_Module__diagsMask__C
00821508   ti_sdo_ipc_heaps_HeapBufMP_Module__id__C
0081afc0   ti_sdo_ipc_heaps_HeapBufMP_Module__root__V
0081afc8   ti_sdo_ipc_heaps_HeapBufMP_Module__state__V
0082099c   ti_sdo_ipc_heaps_HeapBufMP_Object__DESC__C
00820338   ti_sdo_ipc_heaps_HeapBufMP_Object__PARAMS__C
82231e20   ti_sdo_ipc_heaps_HeapBufMP_Object__create__S
82235820   ti_sdo_ipc_heaps_HeapBufMP_Object__delete__S
82236f00   ti_sdo_ipc_heaps_HeapBufMP_Params__init__S
82227620   ti_sdo_ipc_heaps_HeapBufMP_alloc__E
8221efe0   ti_sdo_ipc_heaps_HeapBufMP_free__E
822391c0   ti_sdo_ipc_heaps_HeapBufMP_getStats__E
82230760   ti_sdo_ipc_heaps_HeapBufMP_getStats__F
822391e0   ti_sdo_ipc_heaps_HeapBufMP_isBlocking__E
82239200   ti_sdo_ipc_heaps_HeapBufMP_isBlocking__F
8220c060   ti_sdo_ipc_heaps_HeapBufMP_postInit__I
0082150c   ti_sdo_ipc_heaps_HeapBufMP_trackAllocs__C
00821154   ti_sdo_ipc_heaps_HeapMemMP_A_align__C
00821158   ti_sdo_ipc_heaps_HeapMemMP_A_heapSize__C
0082115c   ti_sdo_ipc_heaps_HeapMemMP_A_invalidFree__C
00821160   ti_sdo_ipc_heaps_HeapMemMP_A_zeroBlock__C
00821164   ti_sdo_ipc_heaps_HeapMemMP_E_memory__C
82236f40   ti_sdo_ipc_heaps_HeapMemMP_Handle__label__S
822242c0   ti_sdo_ipc_heaps_HeapMemMP_Instance_finalize__F
8220c860   ti_sdo_ipc_heaps_HeapMemMP_Instance_init__F
008205ac   ti_sdo_ipc_heaps_HeapMemMP_Module__FXNS__C
00821168   ti_sdo_ipc_heaps_HeapMemMP_Module__diagsEnabled__C
0082116c   ti_sdo_ipc_heaps_HeapMemMP_Module__diagsIncluded__C
00821170   ti_sdo_ipc_heaps_HeapMemMP_Module__diagsMask__C
00821510   ti_sdo_ipc_heaps_HeapMemMP_Module__id__C
0081afcc   ti_sdo_ipc_heaps_HeapMemMP_Module__root__V
0081afd4   ti_sdo_ipc_heaps_HeapMemMP_Module__state__V
008209bc   ti_sdo_ipc_heaps_HeapMemMP_Object__DESC__C
00820448   ti_sdo_ipc_heaps_HeapMemMP_Object__PARAMS__C
82231ee0   ti_sdo_ipc_heaps_HeapMemMP_Object__create__S
82235880   ti_sdo_ipc_heaps_HeapMemMP_Object__delete__S
82236f80   ti_sdo_ipc_heaps_HeapMemMP_Params__init__S
82206f40   ti_sdo_ipc_heaps_HeapMemMP_alloc__E
822079a0   ti_sdo_ipc_heaps_HeapMemMP_free__E
82219a00   ti_sdo_ipc_heaps_HeapMemMP_getStats__E
82239220   ti_sdo_ipc_heaps_HeapMemMP_isBlocking__E
82239240   ti_sdo_ipc_heaps_HeapMemMP_isBlocking__F
82219e40   ti_sdo_ipc_heaps_HeapMemMP_postInit__I
00821174   ti_sdo_ipc_interfaces_IGateMPSupport_Interface__BASE__C
00821178   ti_sdo_ipc_interfaces_IMessageQTransport_Interface__BASE__C
0082117c   ti_sdo_ipc_interfaces_INotifyDriver_Interface__BASE__C
00821180   ti_sdo_ipc_notifyDrivers_NotifyDriverCirc_A_notSupported__C
82236fc0   ti_sdo_ipc_notifyDrivers_NotifyDriverCirc_Handle__label__S
82233720   ti_sdo_ipc_notifyDrivers_NotifyDriverCirc_Instance_finalize__F
82216440   ti_sdo_ipc_notifyDrivers_NotifyDriverCirc_Instance_init__F
82239260   ti_sdo_ipc_notifyDrivers_NotifyDriverCirc_InterruptProxy_intClear__E
82239280   ti_sdo_ipc_notifyDrivers_NotifyDriverCirc_InterruptProxy_intDisable__E
822392a0   ti_sdo_ipc_notifyDrivers_NotifyDriverCirc_InterruptProxy_intEnable__E
82237000   ti_sdo_ipc_notifyDrivers_NotifyDriverCirc_InterruptProxy_intRegister__E
822392c0   ti_sdo_ipc_notifyDrivers_NotifyDriverCirc_InterruptProxy_intSend__E
822392e0   ti_sdo_ipc_notifyDrivers_NotifyDriverCirc_InterruptProxy_intUnregister__E
00820370   ti_sdo_ipc_notifyDrivers_NotifyDriverCirc_Module__FXNS__C
00821184   ti_sdo_ipc_notifyDrivers_NotifyDriverCirc_Module__diagsEnabled__C
00821188   ti_sdo_ipc_notifyDrivers_NotifyDriverCirc_Module__diagsIncluded__C
0082118c   ti_sdo_ipc_notifyDrivers_NotifyDriverCirc_Module__diagsMask__C
00821514   ti_sdo_ipc_notifyDrivers_NotifyDriverCirc_Module__id__C
0081afd8   ti_sdo_ipc_notifyDrivers_NotifyDriverCirc_Module__root__V
008209dc   ti_sdo_ipc_notifyDrivers_NotifyDriverCirc_Object__DESC__C
00820414   ti_sdo_ipc_notifyDrivers_NotifyDriverCirc_Object__PARAMS__C
82234020   ti_sdo_ipc_notifyDrivers_NotifyDriverCirc_Object__create__S
822358e0   ti_sdo_ipc_notifyDrivers_NotifyDriverCirc_Object__delete__S
82237040   ti_sdo_ipc_notifyDrivers_NotifyDriverCirc_Params__init__S
82230840   ti_sdo_ipc_notifyDrivers_NotifyDriverCirc_disableEvent__E
82237080   ti_sdo_ipc_notifyDrivers_NotifyDriverCirc_disable__E
822370c0   ti_sdo_ipc_notifyDrivers_NotifyDriverCirc_enableEvent__E
00821518   ti_sdo_ipc_notifyDrivers_NotifyDriverCirc_enableStats__C
82230920   ti_sdo_ipc_notifyDrivers_NotifyDriverCirc_enable__E
8221f2c0   ti_sdo_ipc_notifyDrivers_NotifyDriverCirc_isr__I
00821190   ti_sdo_ipc_notifyDrivers_NotifyDriverCirc_maxIndex__C
00821194   ti_sdo_ipc_notifyDrivers_NotifyDriverCirc_modIndex__C
00821198   ti_sdo_ipc_notifyDrivers_NotifyDriverCirc_numMsgs__C
82237100   ti_sdo_ipc_notifyDrivers_NotifyDriverCirc_registerEvent__E
82225500   ti_sdo_ipc_notifyDrivers_NotifyDriverCirc_sendEvent__E
82239300   ti_sdo_ipc_notifyDrivers_NotifyDriverCirc_setNotifyHandle__E
82239320   ti_sdo_ipc_notifyDrivers_NotifyDriverCirc_sharedMemReq__E
82222cc0   ti_sdo_ipc_notifyDrivers_NotifyDriverCirc_sharedMemReq__F
82237140   ti_sdo_ipc_notifyDrivers_NotifyDriverCirc_unregisterEvent__E
0082119c   ti_sdo_ipc_nsremote_NameServerRemoteNotify_A_invalidValueLen__C
82237180   ti_sdo_ipc_nsremote_NameServerRemoteNotify_Handle__label__S
008211a0   ti_sdo_ipc_nsremote_NameServerRemoteNotify_Instance_State_semMultiBlock__O
008211a4   ti_sdo_ipc_nsremote_NameServerRemoteNotify_Instance_State_semRemoteWait__O
008211a8   ti_sdo_ipc_nsremote_NameServerRemoteNotify_Instance_State_swiObj__O
8222e3a0   ti_sdo_ipc_nsremote_NameServerRemoteNotify_Instance_finalize__F
8220ec20   ti_sdo_ipc_nsremote_NameServerRemoteNotify_Instance_init__F
008205d4   ti_sdo_ipc_nsremote_NameServerRemoteNotify_Module__FXNS__C
008211ac   ti_sdo_ipc_nsremote_NameServerRemoteNotify_Module__diagsEnabled__C
008211b0   ti_sdo_ipc_nsremote_NameServerRemoteNotify_Module__diagsIncluded__C
008211b4   ti_sdo_ipc_nsremote_NameServerRemoteNotify_Module__diagsMask__C
0082151c   ti_sdo_ipc_nsremote_NameServerRemoteNotify_Module__id__C
0081afe0   ti_sdo_ipc_nsremote_NameServerRemoteNotify_Module__root__V
008209fc   ti_sdo_ipc_nsremote_NameServerRemoteNotify_Object__DESC__C
00820a1c   ti_sdo_ipc_nsremote_NameServerRemoteNotify_Object__PARAMS__C
82231fa0   ti_sdo_ipc_nsremote_NameServerRemoteNotify_Object__create__S
82235940   ti_sdo_ipc_nsremote_NameServerRemoteNotify_Object__delete__S
822371c0   ti_sdo_ipc_nsremote_NameServerRemoteNotify_Object__first__S
82237200   ti_sdo_ipc_nsremote_NameServerRemoteNotify_Object__next__S
82237240   ti_sdo_ipc_nsremote_NameServerRemoteNotify_Params__init__S
82229920   ti_sdo_ipc_nsremote_NameServerRemoteNotify_attach__E
82239340   ti_sdo_ipc_nsremote_NameServerRemoteNotify_cbFxn__I
822340a0   ti_sdo_ipc_nsremote_NameServerRemoteNotify_detach__E
82237280   ti_sdo_ipc_nsremote_NameServerRemoteNotify_get__E
82214020   ti_sdo_ipc_nsremote_NameServerRemoteNotify_get__F
008211b8   ti_sdo_ipc_nsremote_NameServerRemoteNotify_notifyEventId__C
822372c0   ti_sdo_ipc_nsremote_NameServerRemoteNotify_sharedMemReq__E
82217260   ti_sdo_ipc_nsremote_NameServerRemoteNotify_swiFxn__I
008211bc   ti_sdo_ipc_nsremote_NameServerRemoteNotify_timeout__C
0081ca00   ti_sdo_ipc_transports_TransportShmNotifySetup_Module_State_0_handles__A
0081aff0   ti_sdo_ipc_transports_TransportShmNotifySetup_Module__state__V
82232060   ti_sdo_ipc_transports_TransportShmNotifySetup_attach__E
82239360   ti_sdo_ipc_transports_TransportShmNotifySetup_isRegistered__E
008211c0   ti_sdo_ipc_transports_TransportShmNotifySetup_priority__C
82239380   ti_sdo_ipc_transports_TransportShmNotifySetup_sharedMemReq__E
82237300   ti_sdo_ipc_transports_TransportShmNotify_Handle__label__S
82234120   ti_sdo_ipc_transports_TransportShmNotify_Instance_finalize__F
8222f320   ti_sdo_ipc_transports_TransportShmNotify_Instance_init__F
008205fc   ti_sdo_ipc_transports_TransportShmNotify_Module__FXNS__C
0081afe8   ti_sdo_ipc_transports_TransportShmNotify_Module__root__V
00820a3c   ti_sdo_ipc_transports_TransportShmNotify_Object__DESC__C
00820cb8   ti_sdo_ipc_transports_TransportShmNotify_Object__PARAMS__C
82232120   ti_sdo_ipc_transports_TransportShmNotify_Object__create__S
822359a0   ti_sdo_ipc_transports_TransportShmNotify_Object__delete__S
82237340   ti_sdo_ipc_transports_TransportShmNotify_Params__init__S
00821520   ti_sdo_ipc_transports_TransportShmNotify_alwaysWriteBackMsg__C
822393a0   ti_sdo_ipc_transports_TransportShmNotify_control__E
822393c0   ti_sdo_ipc_transports_TransportShmNotify_getStatus__E
00821524   ti_sdo_ipc_transports_TransportShmNotify_notifyEventId__C
82235a00   ti_sdo_ipc_transports_TransportShmNotify_notifyFxn__I
82229ac0   ti_sdo_ipc_transports_TransportShmNotify_put__E
822393e0   ti_sdo_ipc_transports_TransportShmNotify_setErrFxn__E
82239400   ti_sdo_ipc_transports_TransportShmNotify_setErrFxn__F
008211c4   ti_sdo_utils_INameServerRemote_Interface__BASE__C
82239420   ti_sdo_utils_List_Instance_init__F
0081aff4   ti_sdo_utils_List_Module__root__V
00820a5c   ti_sdo_utils_List_Object__DESC__C
00820d08   ti_sdo_utils_List_Object__PARAMS__C
008211c8   ti_sdo_utils_List_Object__count__C
822341a0   ti_sdo_utils_List_Object__create__S
82237380   ti_sdo_utils_List_Object__destruct__S
82235a60   ti_sdo_utils_List_Object__get__S
008211cc   ti_sdo_utils_List_Object__table__C
008211d0   ti_sdo_utils_MultiProc_A_invalidMultiProcId__C
008211d4   ti_sdo_utils_MultiProc_A_invalidProcName__C
008211d8   ti_sdo_utils_MultiProc_Module__diagsEnabled__C
008211dc   ti_sdo_utils_MultiProc_Module__diagsIncluded__C
008211e0   ti_sdo_utils_MultiProc_Module__diagsMask__C
00821528   ti_sdo_utils_MultiProc_Module__id__C
0081affc   ti_sdo_utils_MultiProc_Module__state__V
82239440   ti_sdo_utils_MultiProc_getClusterId__E
82239460   ti_sdo_utils_MultiProc_getClusterId__F
00820f60   ti_sdo_utils_MultiProc_nameList__A
008211e4   ti_sdo_utils_MultiProc_nameList__C
0082152c   ti_sdo_utils_MultiProc_numProcessors__C
00821530   ti_sdo_utils_MultiProc_numProcsInCluster__C
00820fd0   ti_sdo_utils_MultiProc_procIdList__A
008211e8   ti_sdo_utils_MultiProc_procIdList__C
0081b010   ti_sdo_utils_NameServerRemoteNull_Module__root__V
008211ec   ti_sdo_utils_NameServer_A_invArgument__C
008211f0   ti_sdo_utils_NameServer_A_invalidLen__C
008211f4   ti_sdo_utils_NameServer_E_entryExists__C
008211f8   ti_sdo_utils_NameServer_E_maxReached__C
008211fc   ti_sdo_utils_NameServer_Instance_State_freeList__O
00821200   ti_sdo_utils_NameServer_Instance_State_nameList__O
00800000   ti_sdo_utils_NameServer_Module_State_0_nsRemoteHandle__A
00821204   ti_sdo_utils_NameServer_Module__diagsEnabled__C
00821208   ti_sdo_utils_NameServer_Module__diagsIncluded__C
0082120c   ti_sdo_utils_NameServer_Module__diagsMask__C
00821534   ti_sdo_utils_NameServer_Module__id__C
0081b000   ti_sdo_utils_NameServer_Module__root__V
822373c0   ti_sdo_utils_NameServer_Module__startupDone__F
82239480   ti_sdo_utils_NameServer_Module__startupDone__S
0081b008   ti_sdo_utils_NameServer_Module__state__V
822394a0   ti_sdo_utils_NameServer_Module_startup__E
8222b040   ti_sdo_utils_NameServer_Module_startup__F
00821210   ti_sdo_utils_NameServer_Object__count__C
82237400   ti_sdo_utils_NameServer_Object__first__S
82235ac0   ti_sdo_utils_NameServer_Object__get__S
82237440   ti_sdo_utils_NameServer_Object__next__S
00821214   ti_sdo_utils_NameServer_Object__table__C
0081be90   ti_sdo_utils_NameServer_Object__table__V
822394c0   ti_sdo_utils_NameServer_SetupProxy_attach__E
822394e0   ti_sdo_utils_NameServer_SetupProxy_sharedMemReq__E
8222bd40   ti_sdo_utils_NameServer_isRegistered__E
8222bea0   ti_sdo_utils_NameServer_registerRemoteDriver__E
00821538   ti_sdo_utils_NameServer_singleProcessor__C
8222c000   ti_sdo_utils_NameServer_unregisterRemoteDriver__E
00821218   ti_sysbios_BIOS_Module__diagsEnabled__C
0082121c   ti_sysbios_BIOS_Module__diagsIncluded__C
00821220   ti_sysbios_BIOS_Module__diagsMask__C
0082153c   ti_sysbios_BIOS_Module__id__C
0081b018   ti_sysbios_BIOS_Module__state__V
82239500   ti_sysbios_BIOS_RtsGateProxy_enter__E
82239520   ti_sysbios_BIOS_RtsGateProxy_leave__E
822321e0   ti_sysbios_BIOS_errorRaiseHook__I
82235b20   ti_sysbios_BIOS_exitFunc__I
82239540   ti_sysbios_BIOS_getThreadType__E
00821224   ti_sysbios_BIOS_installedErrorHook__C
82235b80   ti_sysbios_BIOS_registerRTSLock__I
82239560   ti_sysbios_BIOS_setThreadType__E
82237480   ti_sysbios_BIOS_startFunc__I
822374c0   ti_sysbios_BIOS_start__E
82239580   ti_sysbios_family_c62_TaskSupport_Module__startupDone__S
82236840   ti_sysbios_family_c62_TaskSupport_buildTaskStack
822395a0   ti_sysbios_family_c62_TaskSupport_checkStack__E
822395c0   ti_sysbios_family_c62_TaskSupport_getStackAlignment__E
822387e0   ti_sysbios_family_c62_TaskSupport_glue
00821228   ti_sysbios_family_c62_TaskSupport_stackAlignment__C
82234220   ti_sysbios_family_c62_TaskSupport_start__E
82233b20   ti_sysbios_family_c62_TaskSupport_swap__E
00820f70   ti_sysbios_family_c64p_EventCombiner_EVTMASK__C
0082122c   ti_sysbios_family_c64p_EventCombiner_E_unpluggedEvent__C
00821540   ti_sysbios_family_c64p_EventCombiner_Module__id__C
0081b034   ti_sysbios_family_c64p_EventCombiner_Module__state__V
822395e0   ti_sysbios_family_c64p_EventCombiner_Module_startup__E
82235be0   ti_sysbios_family_c64p_EventCombiner_Module_startup__F
82239600   ti_sysbios_family_c64p_EventCombiner_disableEvent__E
82237500   ti_sysbios_family_c64p_EventCombiner_disableEvent__F
82237540   ti_sysbios_family_c64p_EventCombiner_dispatchPlug__E
82235c40   ti_sysbios_family_c64p_EventCombiner_dispatchPlug__F
82239620   ti_sysbios_family_c64p_EventCombiner_dispatch__E
8222f420   ti_sysbios_family_c64p_EventCombiner_dispatch__F
82239640   ti_sysbios_family_c64p_EventCombiner_enableEvent__E
82237580   ti_sysbios_family_c64p_EventCombiner_enableEvent__F
82239660   ti_sysbios_family_c64p_EventCombiner_unused__E
82235ca0   ti_sysbios_family_c64p_EventCombiner_unused__F
00821230   ti_sysbios_family_c64p_Exception_E_exceptionMin__C
00821544   ti_sysbios_family_c64p_Exception_Module__id__C
0081b434   ti_sysbios_family_c64p_Exception_Module__state__V
82239680   ti_sysbios_family_c64p_Exception_Module_startup__E
822342a0   ti_sysbios_family_c64p_Exception_Module_startup__F
8222aa40   ti_sysbios_family_c64p_Exception_dispatch__E
00821234   ti_sysbios_family_c64p_Exception_exceptionHook__C
00821238   ti_sysbios_family_c64p_Exception_externalHook__C
8220cfe0   ti_sysbios_family_c64p_Exception_handler__I
82225740   ti_sysbios_family_c64p_Exception_internalHandler__I
0082123c   ti_sysbios_family_c64p_Exception_internalHook__C
00821240   ti_sysbios_family_c64p_Exception_nmiHook__C
8223ac00   ti_sysbios_family_c64p_Hwi0
8223ac20   ti_sysbios_family_c64p_Hwi1
8223ad40   ti_sysbios_family_c64p_Hwi10
8223ad60   ti_sysbios_family_c64p_Hwi11
8223ad80   ti_sysbios_family_c64p_Hwi12
8223ada0   ti_sysbios_family_c64p_Hwi13
8223adc0   ti_sysbios_family_c64p_Hwi14
8223ade0   ti_sysbios_family_c64p_Hwi15
8223ac40   ti_sysbios_family_c64p_Hwi2
8223ac60   ti_sysbios_family_c64p_Hwi3
8223ac80   ti_sysbios_family_c64p_Hwi4
8223aca0   ti_sysbios_family_c64p_Hwi5
8223acc0   ti_sysbios_family_c64p_Hwi6
8223ace0   ti_sysbios_family_c64p_Hwi7
8223ad00   ti_sysbios_family_c64p_Hwi8
8223ad20   ti_sysbios_family_c64p_Hwi9
00821244   ti_sysbios_family_c64p_Hwi_E_alreadyDefined__C
82234320   ti_sysbios_family_c64p_Hwi_Instance_finalize__F
822322a0   ti_sysbios_family_c64p_Hwi_Instance_init__F
00821248   ti_sysbios_family_c64p_Hwi_LD_end__C
0082124c   ti_sysbios_family_c64p_Hwi_LM_begin__C
00821250   ti_sysbios_family_c64p_Hwi_Module__diagsEnabled__C
00821254   ti_sysbios_family_c64p_Hwi_Module__diagsIncluded__C
00821258   ti_sysbios_family_c64p_Hwi_Module__diagsMask__C
00821548   ti_sysbios_family_c64p_Hwi_Module__id__C
0082154c   ti_sysbios_family_c64p_Hwi_Module__loggerDefined__C
0082125c   ti_sysbios_family_c64p_Hwi_Module__loggerFxn1__C
00821260   ti_sysbios_family_c64p_Hwi_Module__loggerFxn8__C
00821264   ti_sysbios_family_c64p_Hwi_Module__loggerObj__C
0081b460   ti_sysbios_family_c64p_Hwi_Module__root__V
822375c0   ti_sysbios_family_c64p_Hwi_Module__startupDone__F
822396a0   ti_sysbios_family_c64p_Hwi_Module__startupDone__S
0081b468   ti_sysbios_family_c64p_Hwi_Module__state__V
822396c0   ti_sysbios_family_c64p_Hwi_Module_startup__E
8222d1c0   ti_sysbios_family_c64p_Hwi_Module_startup__F
00820a7c   ti_sysbios_family_c64p_Hwi_Object__DESC__C
00820478   ti_sysbios_family_c64p_Hwi_Object__PARAMS__C
82230a00   ti_sysbios_family_c64p_Hwi_Object__create__S
82235d00   ti_sysbios_family_c64p_Hwi_Object__delete__S
0081c3a0   ti_sysbios_family_c64p_Hwi_Object__table__V
82237600   ti_sysbios_family_c64p_Hwi_Params__init__S
822396e0   ti_sysbios_family_c64p_Hwi_clearInterrupt__E
82237640   ti_sysbios_family_c64p_Hwi_disableInterrupt__E
82239700   ti_sysbios_family_c64p_Hwi_disable__E
82226c20   ti_sysbios_family_c64p_Hwi_dispatchAlways
8221de60   ti_sysbios_family_c64p_Hwi_dispatchC__I
82237680   ti_sysbios_family_c64p_Hwi_enableInterrupt__E
822343a0   ti_sysbios_family_c64p_Hwi_eventMap__E
82239720   ti_sysbios_family_c64p_Hwi_getHandle__E
82233360   ti_sysbios_family_c64p_Hwi_plug__E
822286c0   ti_sysbios_family_c64p_Hwi_reconfig__E
82239740   ti_sysbios_family_c64p_Hwi_restore__E
82239760   ti_sysbios_family_c64p_Hwi_startup__E
82239780   ti_sysbios_family_c64p_Hwi_switchFromBootStack__E
822397a0   ti_sysbios_family_c64p_Hwi_unPluggedInterrupt__I
822397c0   ti_sysbios_family_c64p_TimestampProvider_Module_startup__E
822397e0   ti_sysbios_family_c64p_TimestampProvider_Module_startup__F
82239800   ti_sysbios_family_c64p_TimestampProvider_get32__E
82239820   ti_sysbios_family_c64p_tci6488_TimerSupport_enable__E
82239840   ti_sysbios_family_c66_Cache_Module_startup__E
8222d300   ti_sysbios_family_c66_Cache_Module_startup__F
00821268   ti_sysbios_family_c66_Cache_atomicBlockSize__C
00820824   ti_sysbios_family_c66_Cache_initSize__C
82234420   ti_sysbios_family_c66_Cache_invL1pAll__E
82239860   ti_sysbios_family_c66_Cache_inv__E
0081f4f0   ti_sysbios_family_c66_Cache_marvalues__C
822376c0   ti_sysbios_family_c66_Cache_wait__E
82239880   ti_sysbios_family_c66_Cache_wbInv__E
822398a0   ti_sysbios_family_c66_Cache_wb__E
0082126c   ti_sysbios_family_c66_tci66xx_CpIntc_E_unpluggedSysInt__C
0081ca60   ti_sysbios_family_c66_tci66xx_CpIntc_Module_State_0_controller__A
0081b630   ti_sysbios_family_c66_tci66xx_CpIntc_Module_State_0_dispatchTab__A
0081c420   ti_sysbios_family_c66_tci66xx_CpIntc_Module_State_0_hostIntToSysInt__A
0081c970   ti_sysbios_family_c66_tci66xx_CpIntc_Module_State_0_initSIER__A
00821550   ti_sysbios_family_c66_tci66xx_CpIntc_Module__id__C
0081b4cc   ti_sysbios_family_c66_tci66xx_CpIntc_Module__state__V
822398c0   ti_sysbios_family_c66_tci66xx_CpIntc_Module_startup__E
82221b00   ti_sysbios_family_c66_tci66xx_CpIntc_Module_startup__F
82237700   ti_sysbios_family_c66_tci66xx_CpIntc_dispatchPlug__E
82237740   ti_sysbios_family_c66_tci66xx_CpIntc_dispatchPlug__F
822398e0   ti_sysbios_family_c66_tci66xx_CpIntc_dispatch__E
82229c60   ti_sysbios_family_c66_tci66xx_CpIntc_dispatch__F
82239900   ti_sysbios_family_c66_tci66xx_CpIntc_enableAllHostInts__E
82237780   ti_sysbios_family_c66_tci66xx_CpIntc_enableAllHostInts__F
82239920   ti_sysbios_family_c66_tci66xx_CpIntc_enableHostInt__E
82239940   ti_sysbios_family_c66_tci66xx_CpIntc_enableHostInt__F
82239960   ti_sysbios_family_c66_tci66xx_CpIntc_getEventId__E
82239980   ti_sysbios_family_c66_tci66xx_CpIntc_getEventId__F
00820090   ti_sysbios_family_c66_tci66xx_CpIntc_hostIntToEventId__A
00821270   ti_sysbios_family_c66_tci66xx_CpIntc_hostIntToEventId__C
822399a0   ti_sysbios_family_c66_tci66xx_CpIntc_mapSysIntToHostInt__E
822344a0   ti_sysbios_family_c66_tci66xx_CpIntc_mapSysIntToHostInt__F
00821274   ti_sysbios_family_c66_tci66xx_CpIntc_numStatusRegs__C
00821278   ti_sysbios_family_c66_tci66xx_CpIntc_numSysInts__C
0081fe20   ti_sysbios_family_c66_tci66xx_CpIntc_sysIntToHostInt__A
0082127c   ti_sysbios_family_c66_tci66xx_CpIntc_sysIntToHostInt__C
822399c0   ti_sysbios_family_c66_tci66xx_CpIntc_unused__E
82235d60   ti_sysbios_family_c66_tci66xx_CpIntc_unused__F
82236880   ti_sysbios_family_xxx_Hwi_switchToIsrStack
82238800   ti_sysbios_family_xxx_Hwi_switchToTaskStack
822377c0   ti_sysbios_gates_GateAll_Handle__label__S
822399e0   ti_sysbios_gates_GateAll_Instance_init__F
008206e0   ti_sysbios_gates_GateAll_Module__FXNS__C
0081b4dc   ti_sysbios_gates_GateAll_Module__root__V
00820a9c   ti_sysbios_gates_GateAll_Object__DESC__C
00820d20   ti_sysbios_gates_GateAll_Object__PARAMS__C
82234520   ti_sysbios_gates_GateAll_Object__create__S
82237800   ti_sysbios_gates_GateAll_Object__delete__S
0081ca10   ti_sysbios_gates_GateAll_Object__table__V
82235dc0   ti_sysbios_gates_GateAll_enter__E
82232360   ti_sysbios_gates_GateAll_leave__E
82239a00   ti_sysbios_gates_GateAll_query__E
82239a20   ti_sysbios_gates_GateAll_query__F
82237840   ti_sysbios_gates_GateHwi_Handle__label__S
82239a40   ti_sysbios_gates_GateHwi_Instance_init__F
00820704   ti_sysbios_gates_GateHwi_Module__FXNS__C
0081b4e4   ti_sysbios_gates_GateHwi_Module__root__V
00820abc   ti_sysbios_gates_GateHwi_Object__DESC__C
00820d38   ti_sysbios_gates_GateHwi_Object__PARAMS__C
822345a0   ti_sysbios_gates_GateHwi_Object__create__S
82237880   ti_sysbios_gates_GateHwi_Object__delete__S
0081caf0   ti_sysbios_gates_GateHwi_Object__table__V
82239a60   ti_sysbios_gates_GateHwi_enter__E
82239a80   ti_sysbios_gates_GateHwi_leave__E
82239aa0   ti_sysbios_gates_GateHwi_query__E
82239ac0   ti_sysbios_gates_GateHwi_query__F
00821280   ti_sysbios_gates_GateMutexPri_A_badContext__C
822378c0   ti_sysbios_gates_GateMutexPri_Handle__label__S
00821284   ti_sysbios_gates_GateMutexPri_Instance_State_pendQ__O
82237900   ti_sysbios_gates_GateMutexPri_Instance_finalize__F
82237940   ti_sysbios_gates_GateMutexPri_Instance_init__F
00820728   ti_sysbios_gates_GateMutexPri_Module__FXNS__C
00821288   ti_sysbios_gates_GateMutexPri_Module__diagsEnabled__C
0082128c   ti_sysbios_gates_GateMutexPri_Module__diagsIncluded__C
00821290   ti_sysbios_gates_GateMutexPri_Module__diagsMask__C
00821554   ti_sysbios_gates_GateMutexPri_Module__id__C
0081b4f4   ti_sysbios_gates_GateMutexPri_Module__root__V
00820adc   ti_sysbios_gates_GateMutexPri_Object__DESC__C
00820d50   ti_sysbios_gates_GateMutexPri_Object__PARAMS__C
82234620   ti_sysbios_gates_GateMutexPri_Object__create__S
82235e20   ti_sysbios_gates_GateMutexPri_Object__delete__S
82237980   ti_sysbios_gates_GateMutexPri_Object__destruct__S
0081c9b0   ti_sysbios_gates_GateMutexPri_Object__table__V
8221f5a0   ti_sysbios_gates_GateMutexPri_enter__E
8222f520   ti_sysbios_gates_GateMutexPri_leave__E
82239ae0   ti_sysbios_gates_GateMutexPri_query__E
82239b00   ti_sysbios_gates_GateMutexPri_query__F
00821294   ti_sysbios_gates_GateMutex_A_badContext__C
822379c0   ti_sysbios_gates_GateMutex_Handle__label__S
00821298   ti_sysbios_gates_GateMutex_Instance_State_sem__O
82237a00   ti_sysbios_gates_GateMutex_Instance_finalize__F
82235e80   ti_sysbios_gates_GateMutex_Instance_init__F
0082074c   ti_sysbios_gates_GateMutex_Module__FXNS__C
0082129c   ti_sysbios_gates_GateMutex_Module__diagsEnabled__C
008212a0   ti_sysbios_gates_GateMutex_Module__diagsIncluded__C
008212a4   ti_sysbios_gates_GateMutex_Module__diagsMask__C
00821558   ti_sysbios_gates_GateMutex_Module__id__C
0081b4ec   ti_sysbios_gates_GateMutex_Module__root__V
00820afc   ti_sysbios_gates_GateMutex_Object__DESC__C
00820d68   ti_sysbios_gates_GateMutex_Object__PARAMS__C
822346a0   ti_sysbios_gates_GateMutex_Object__create__S
82235ee0   ti_sysbios_gates_GateMutex_Object__delete__S
0081c780   ti_sysbios_gates_GateMutex_Object__table__V
82229e00   ti_sysbios_gates_GateMutex_enter__E
82237a40   ti_sysbios_gates_GateMutex_leave__E
82239b20   ti_sysbios_gates_GateMutex_query__E
82239b40   ti_sysbios_gates_GateMutex_query__F
008212a8   ti_sysbios_gates_GateSwi_A_badContext__C
82237a80   ti_sysbios_gates_GateSwi_Handle__label__S
82239b60   ti_sysbios_gates_GateSwi_Instance_init__F
00820770   ti_sysbios_gates_GateSwi_Module__FXNS__C
008212ac   ti_sysbios_gates_GateSwi_Module__diagsEnabled__C
008212b0   ti_sysbios_gates_GateSwi_Module__diagsIncluded__C
008212b4   ti_sysbios_gates_GateSwi_Module__diagsMask__C
0082155c   ti_sysbios_gates_GateSwi_Module__id__C
0081b4fc   ti_sysbios_gates_GateSwi_Module__root__V
00820b1c   ti_sysbios_gates_GateSwi_Object__DESC__C
00820d80   ti_sysbios_gates_GateSwi_Object__PARAMS__C
82234720   ti_sysbios_gates_GateSwi_Object__create__S
82237ac0   ti_sysbios_gates_GateSwi_Object__delete__S
0081ca70   ti_sysbios_gates_GateSwi_Object__table__V
8222d440   ti_sysbios_gates_GateSwi_enter__E
822347a0   ti_sysbios_gates_GateSwi_leave__E
82239b80   ti_sysbios_gates_GateSwi_query__E
82239ba0   ti_sysbios_gates_GateSwi_query__F
82237b00   ti_sysbios_hal_Cache_CacheProxy_inv__E
82239bc0   ti_sysbios_hal_Cache_CacheProxy_wait__E
82237b40   ti_sysbios_hal_Cache_CacheProxy_wbInv__E
82237b80   ti_sysbios_hal_Cache_CacheProxy_wb__E
82237b00   ti_sysbios_hal_Cache_inv__E
82239bc0   ti_sysbios_hal_Cache_wait__E
82237b40   ti_sysbios_hal_Cache_wbInv__E
82237b80   ti_sysbios_hal_Cache_wb__E
008212b8   ti_sysbios_hal_Hwi_E_stackOverflow__C
82239be0   ti_sysbios_hal_Hwi_HwiProxy_Module__startupDone__S
82239c00   ti_sysbios_hal_Hwi_HwiProxy_clearInterrupt__E
82239c20   ti_sysbios_hal_Hwi_HwiProxy_disableInterrupt__E
82239c40   ti_sysbios_hal_Hwi_HwiProxy_enableInterrupt__E
82239c60   ti_sysbios_hal_Hwi_HwiProxy_startup__E
82239c80   ti_sysbios_hal_Hwi_HwiProxy_switchFromBootStack__E
00821560   ti_sysbios_hal_Hwi_Module__id__C
0081b504   ti_sysbios_hal_Hwi_Module__root__V
82239ca0   ti_sysbios_hal_Hwi_Module_startup__E
82239cc0   ti_sysbios_hal_Hwi_Module_startup__F
0081ca80   ti_sysbios_hal_Hwi_Object__table__V
82234820   ti_sysbios_hal_Hwi_checkStack
82239c00   ti_sysbios_hal_Hwi_clearInterrupt__E
82239c20   ti_sysbios_hal_Hwi_disableInterrupt__E
82239c40   ti_sysbios_hal_Hwi_enableInterrupt__E
82235f40   ti_sysbios_hal_Hwi_initStack
82239c60   ti_sysbios_hal_Hwi_startup__E
82239c80   ti_sysbios_hal_Hwi_switchFromBootStack__E
0081b50c   ti_sysbios_hal_Timer_Module__root__V
82237bc0   ti_sysbios_hal_Timer_Module__startupDone__F
82239ce0   ti_sysbios_hal_Timer_Module__startupDone__S
82239d00   ti_sysbios_hal_Timer_Module_startup__E
82239d20   ti_sysbios_hal_Timer_Module_startup__F
0081ca90   ti_sysbios_hal_Timer_Object__table__V
82239d40   ti_sysbios_hal_Timer_TimerProxy_Module__startupDone__S
82239d60   ti_sysbios_hal_Timer_TimerProxy_getExpiredCounts__E
82239d80   ti_sysbios_hal_Timer_TimerProxy_getPeriod__E
82239da0   ti_sysbios_hal_Timer_TimerProxy_setNextTick__E
82239dc0   ti_sysbios_hal_Timer_TimerProxy_startup__E
82239dc0   ti_sysbios_hal_Timer_startup__E
008212bc   ti_sysbios_heaps_HeapMem_A_align__C
008212c0   ti_sysbios_heaps_HeapMem_A_heapSize__C
008212c4   ti_sysbios_heaps_HeapMem_A_invalidFree__C
008212c8   ti_sysbios_heaps_HeapMem_A_zeroBlock__C
008212cc   ti_sysbios_heaps_HeapMem_E_memory__C
82237c00   ti_sysbios_heaps_HeapMem_Handle__label__S
00800010   ti_sysbios_heaps_HeapMem_Instance_State_0_buf__A
8222b1c0   ti_sysbios_heaps_HeapMem_Instance_init__F
82239de0   ti_sysbios_heaps_HeapMem_Module_GateProxy_enter__E
82239e00   ti_sysbios_heaps_HeapMem_Module_GateProxy_leave__E
82239e20   ti_sysbios_heaps_HeapMem_Module_GateProxy_query__E
00820624   ti_sysbios_heaps_HeapMem_Module__FXNS__C
008212d0   ti_sysbios_heaps_HeapMem_Module__diagsEnabled__C
008212d4   ti_sysbios_heaps_HeapMem_Module__diagsIncluded__C
008212d8   ti_sysbios_heaps_HeapMem_Module__diagsMask__C
008212dc   ti_sysbios_heaps_HeapMem_Module__gateObj__C
00821564   ti_sysbios_heaps_HeapMem_Module__id__C
0081b514   ti_sysbios_heaps_HeapMem_Module__root__V
00820b3c   ti_sysbios_heaps_HeapMem_Object__DESC__C
00820b5c   ti_sysbios_heaps_HeapMem_Object__PARAMS__C
008212e0   ti_sysbios_heaps_HeapMem_Object__count__C
822348a0   ti_sysbios_heaps_HeapMem_Object__create__S
82237c40   ti_sysbios_heaps_HeapMem_Object__delete__S
82235fa0   ti_sysbios_heaps_HeapMem_Object__get__S
008212e4   ti_sysbios_heaps_HeapMem_Object__table__C
0081c9d0   ti_sysbios_heaps_HeapMem_Object__table__V
82210600   ti_sysbios_heaps_HeapMem_alloc__E
8220f980   ti_sysbios_heaps_HeapMem_free__E
82232420   ti_sysbios_heaps_HeapMem_getStats__E
822337c0   ti_sysbios_heaps_HeapMem_init__I
82239e40   ti_sysbios_heaps_HeapMem_isBlocking__E
008212e8   ti_sysbios_heaps_HeapMem_reqAlignMask__C
008212ec   ti_sysbios_heaps_HeapMem_reqAlign__C
008212f0   ti_sysbios_knl_Clock_A_badThreadType__C
8222d580   ti_sysbios_knl_Clock_Instance_finalize__F
82222f40   ti_sysbios_knl_Clock_Instance_init__F
008212f4   ti_sysbios_knl_Clock_LM_begin__C
008212f8   ti_sysbios_knl_Clock_LM_tick__C
008212fc   ti_sysbios_knl_Clock_LW_delayed__C
00821300   ti_sysbios_knl_Clock_Module_State_clockQ__O
00821304   ti_sysbios_knl_Clock_Module__diagsEnabled__C
00821308   ti_sysbios_knl_Clock_Module__diagsIncluded__C
0082130c   ti_sysbios_knl_Clock_Module__diagsMask__C
00821568   ti_sysbios_knl_Clock_Module__id__C
0082156c   ti_sysbios_knl_Clock_Module__loggerDefined__C
00821310   ti_sysbios_knl_Clock_Module__loggerFxn1__C
00821314   ti_sysbios_knl_Clock_Module__loggerFxn2__C
00821318   ti_sysbios_knl_Clock_Module__loggerObj__C
0081b51c   ti_sysbios_knl_Clock_Module__root__V
0081b524   ti_sysbios_knl_Clock_Module__state__V
82239e80   ti_sysbios_knl_Clock_Module_startup__E
82234920   ti_sysbios_knl_Clock_Module_startup__F
00820b7c   ti_sysbios_knl_Clock_Object__DESC__C
00820794   ti_sysbios_knl_Clock_Object__PARAMS__C
822349a0   ti_sysbios_knl_Clock_Object__create__S
82237c80   ti_sysbios_knl_Clock_Object__destruct__S
82237cc0   ti_sysbios_knl_Clock_Params__init__S
82236000   ti_sysbios_knl_Clock_doTick__I
82234a20   ti_sysbios_knl_Clock_getTicks__E
822324e0   ti_sysbios_knl_Clock_logTick__E
8222f620   ti_sysbios_knl_Clock_startI__E
82230ae0   ti_sysbios_knl_Clock_start__E
0082131c   ti_sysbios_knl_Clock_tickMode__C
00821320   ti_sysbios_knl_Clock_tickPeriod__C
00821324   ti_sysbios_knl_Clock_tickSource__C
82221da0   ti_sysbios_knl_Clock_workFunc__E
00821330   ti_sysbios_knl_Idle_funcList__A
00820e44   ti_sysbios_knl_Idle_funcList__C
822325a0   ti_sysbios_knl_Idle_loop__E
82239ea0   ti_sysbios_knl_Queue_Instance_init__F
0081b550   ti_sysbios_knl_Queue_Module__root__V
00820b9c   ti_sysbios_knl_Queue_Object__DESC__C
00820d98   ti_sysbios_knl_Queue_Object__PARAMS__C
00821328   ti_sysbios_knl_Queue_Object__count__C
82234aa0   ti_sysbios_knl_Queue_Object__create__S
82237d00   ti_sysbios_knl_Queue_Object__destruct__S
82236060   ti_sysbios_knl_Queue_Object__get__S
0082132c   ti_sysbios_knl_Queue_Object__table__C
82239ec0   ti_sysbios_knl_Queue_empty__E
00821334   ti_sysbios_knl_Semaphore_A_badContext__C
00821338   ti_sysbios_knl_Semaphore_A_noEvents__C
0082133c   ti_sysbios_knl_Semaphore_Instance_State_pendQ__O
82237d40   ti_sysbios_knl_Semaphore_Instance_finalize__F
8222d6c0   ti_sysbios_knl_Semaphore_Instance_init__F
00821340   ti_sysbios_knl_Semaphore_LM_pend__C
00821344   ti_sysbios_knl_Semaphore_LM_post__C
00821348   ti_sysbios_knl_Semaphore_Module__diagsEnabled__C
0082134c   ti_sysbios_knl_Semaphore_Module__diagsIncluded__C
00821350   ti_sysbios_knl_Semaphore_Module__diagsMask__C
00821570   ti_sysbios_knl_Semaphore_Module__id__C
00821574   ti_sysbios_knl_Semaphore_Module__loggerDefined__C
00821354   ti_sysbios_knl_Semaphore_Module__loggerFxn2__C
00821358   ti_sysbios_knl_Semaphore_Module__loggerFxn4__C
0082135c   ti_sysbios_knl_Semaphore_Module__loggerObj__C
0081b558   ti_sysbios_knl_Semaphore_Module__root__V
00820bbc   ti_sysbios_knl_Semaphore_Object__DESC__C
008207b8   ti_sysbios_knl_Semaphore_Object__PARAMS__C
82234b20   ti_sysbios_knl_Semaphore_Object__create__S
822360c0   ti_sysbios_knl_Semaphore_Object__delete__S
82237d80   ti_sysbios_knl_Semaphore_Object__destruct__S
82237dc0   ti_sysbios_knl_Semaphore_Params__init__S
82234ba0   ti_sysbios_knl_Semaphore_pendTimeout__I
8221aaa0   ti_sysbios_knl_Semaphore_pend__E
8222b340   ti_sysbios_knl_Semaphore_post__E
00821360   ti_sysbios_knl_Swi_A_badPriority__C
82232660   ti_sysbios_knl_Swi_Instance_finalize__F
82228880   ti_sysbios_knl_Swi_Instance_init__F
00821364   ti_sysbios_knl_Swi_LD_end__C
00821368   ti_sysbios_knl_Swi_LM_begin__C
0082136c   ti_sysbios_knl_Swi_LM_post__C
0081c220   ti_sysbios_knl_Swi_Module_State_0_readyQ__A
00821370   ti_sysbios_knl_Swi_Module__diagsEnabled__C
00821374   ti_sysbios_knl_Swi_Module__diagsIncluded__C
00821378   ti_sysbios_knl_Swi_Module__diagsMask__C
00821578   ti_sysbios_knl_Swi_Module__id__C
0082157c   ti_sysbios_knl_Swi_Module__loggerDefined__C
0082137c   ti_sysbios_knl_Swi_Module__loggerFxn1__C
00821380   ti_sysbios_knl_Swi_Module__loggerFxn4__C
00821384   ti_sysbios_knl_Swi_Module__loggerObj__C
0081b560   ti_sysbios_knl_Swi_Module__root__V
0081b568   ti_sysbios_knl_Swi_Module__state__V
82239ee0   ti_sysbios_knl_Swi_Module_startup__E
82236120   ti_sysbios_knl_Swi_Module_startup__F
00820bdc   ti_sysbios_knl_Swi_Object__DESC__C
0082064c   ti_sysbios_knl_Swi_Object__PARAMS__C
00821388   ti_sysbios_knl_Swi_Object__count__C
82232720   ti_sysbios_knl_Swi_Object__create__S
82237e00   ti_sysbios_knl_Swi_Object__destruct__S
82236180   ti_sysbios_knl_Swi_Object__get__S
0082138c   ti_sysbios_knl_Swi_Object__table__C
0081c880   ti_sysbios_knl_Swi_Object__table__V
82237e40   ti_sysbios_knl_Swi_Params__init__S
82239f00   ti_sysbios_knl_Swi_disable__E
8222d800   ti_sysbios_knl_Swi_post__E
8221cee0   ti_sysbios_knl_Swi_restoreHwi__E
8221b260   ti_sysbios_knl_Swi_schedule__I
82234c20   ti_sysbios_knl_Swi_startup__E
00821390   ti_sysbios_knl_Task_A_badPriority__C
00821394   ti_sysbios_knl_Task_A_badTaskState__C
00821398   ti_sysbios_knl_Task_A_badThreadType__C
0082139c   ti_sysbios_knl_Task_A_noPendElem__C
008213a0   ti_sysbios_knl_Task_E_spOutOfBounds__C
008213a4   ti_sysbios_knl_Task_E_stackOverflow__C
00808010   ti_sysbios_knl_Task_Instance_State_0_hookEnv__A
00816ba0   ti_sysbios_knl_Task_Instance_State_0_stack__A
82215580   ti_sysbios_knl_Task_Instance_finalize__F
8221b620   ti_sysbios_knl_Task_Instance_init__F
008213a8   ti_sysbios_knl_Task_LD_block__C
008213ac   ti_sysbios_knl_Task_LD_exit__C
008213b0   ti_sysbios_knl_Task_LD_ready__C
008213b4   ti_sysbios_knl_Task_LM_setPri__C
008213b8   ti_sysbios_knl_Task_LM_switch__C
008213bc   ti_sysbios_knl_Task_LM_yield__C
0081c2a0   ti_sysbios_knl_Task_Module_State_0_readyQ__A
008213c0   ti_sysbios_knl_Task_Module_State_inactiveQ__O
008213c4   ti_sysbios_knl_Task_Module_State_terminatedQ__O
008213c8   ti_sysbios_knl_Task_Module__diagsEnabled__C
008213cc   ti_sysbios_knl_Task_Module__diagsIncluded__C
008213d0   ti_sysbios_knl_Task_Module__diagsMask__C
00821580   ti_sysbios_knl_Task_Module__id__C
00821584   ti_sysbios_knl_Task_Module__loggerDefined__C
008213d4   ti_sysbios_knl_Task_Module__loggerFxn2__C
008213d8   ti_sysbios_knl_Task_Module__loggerFxn4__C
008213dc   ti_sysbios_knl_Task_Module__loggerObj__C
0081b584   ti_sysbios_knl_Task_Module__root__V
0081b58c   ti_sysbios_knl_Task_Module__state__V
82239f20   ti_sysbios_knl_Task_Module_startup__E
82217b80   ti_sysbios_knl_Task_Module_startup__F
00820bfc   ti_sysbios_knl_Task_Object__DESC__C
008203a8   ti_sysbios_knl_Task_Object__PARAMS__C
008213e0   ti_sysbios_knl_Task_Object__count__C
822327e0   ti_sysbios_knl_Task_Object__create__S
82237e80   ti_sysbios_knl_Task_Object__first__S
822361e0   ti_sysbios_knl_Task_Object__get__S
008213e4   ti_sysbios_knl_Task_Object__heap__C
82237ec0   ti_sysbios_knl_Task_Object__next__S
008213e8   ti_sysbios_knl_Task_Object__table__C
0081c6b0   ti_sysbios_knl_Task_Object__table__V
82237f00   ti_sysbios_knl_Task_Params__init__S
82239f40   ti_sysbios_knl_Task_SupportProxy_Module__startupDone__S
82239f60   ti_sysbios_knl_Task_SupportProxy_checkStack__E
82239f80   ti_sysbios_knl_Task_SupportProxy_getStackAlignment__E
82239fa0   ti_sysbios_knl_Task_SupportProxy_start__E
82239fc0   ti_sysbios_knl_Task_SupportProxy_swap__E
008213ec   ti_sysbios_knl_Task_allBlockedFunc__C
82236240   ti_sysbios_knl_Task_allBlockedFunction__I
8222d940   ti_sysbios_knl_Task_blockI__E
82228a40   ti_sysbios_knl_Task_checkStacks__E
008213f0   ti_sysbios_knl_Task_defaultStackHeap__C
008213f4   ti_sysbios_knl_Task_defaultStackSize__C
00821588   ti_sysbios_knl_Task_deleteTerminatedTasks__C
82239fe0   ti_sysbios_knl_Task_disable__E
8223a000   ti_sysbios_knl_Task_enable__E
822362a0   ti_sysbios_knl_Task_enter__I
822231c0   ti_sysbios_knl_Task_exit__E
8223a020   ti_sysbios_knl_Task_getPri__E
00820db0   ti_sysbios_knl_Task_hooks__A
00820e64   ti_sysbios_knl_Task_hooks__C
0082158c   ti_sysbios_knl_Task_initStackFlag__C
008213f8   ti_sysbios_knl_Task_numConstructedTasks__C
008213fc   ti_sysbios_knl_Task_numPriorities__C
82227dc0   ti_sysbios_knl_Task_postInit__I
82234ca0   ti_sysbios_knl_Task_restore__E
82225fe0   ti_sysbios_knl_Task_schedule__I
8223a040   ti_sysbios_knl_Task_self__E
8221b9e0   ti_sysbios_knl_Task_setPri__E
82226200   ti_sysbios_knl_Task_startup__E
8222b4c0   ti_sysbios_knl_Task_unblockI__E
8222da80   ti_sysbios_knl_Task_yield__E
82237f40   ti_sysbios_syncs_SyncSem_Handle__label__S
82237f80   ti_sysbios_syncs_SyncSem_Instance_finalize__F
8222c160   ti_sysbios_syncs_SyncSem_Instance_init__F
008207dc   ti_sysbios_syncs_SyncSem_Module__FXNS__C
00821400   ti_sysbios_syncs_SyncSem_Module__diagsEnabled__C
00821404   ti_sysbios_syncs_SyncSem_Module__diagsIncluded__C
00821408   ti_sysbios_syncs_SyncSem_Module__diagsMask__C
00821590   ti_sysbios_syncs_SyncSem_Module__id__C
0081b5c0   ti_sysbios_syncs_SyncSem_Module__root__V
00820c1c   ti_sysbios_syncs_SyncSem_Object__DESC__C
00820cd4   ti_sysbios_syncs_SyncSem_Object__PARAMS__C
822328a0   ti_sysbios_syncs_SyncSem_Object__create__S
82236300   ti_sysbios_syncs_SyncSem_Object__delete__S
8223a060   ti_sysbios_syncs_SyncSem_query__E
8223a080   ti_sysbios_syncs_SyncSem_query__F
8223a0a0   ti_sysbios_syncs_SyncSem_signal__E
8223a0c0   ti_sysbios_syncs_SyncSem_signal__F
8223a0e0   ti_sysbios_syncs_SyncSem_wait__E
82233860   ti_sysbios_syncs_SyncSem_wait__F
0082140c   ti_sysbios_timers_timer64_Timer_A_notAvailable__C
00821410   ti_sysbios_timers_timer64_Timer_E_cannotSupport__C
0081bfb0   ti_sysbios_timers_timer64_Timer_Module_State_0_device__A
0081c7c0   ti_sysbios_timers_timer64_Timer_Module_State_0_gctrl__A
0081c800   ti_sysbios_timers_timer64_Timer_Module_State_0_handles__A
0081c840   ti_sysbios_timers_timer64_Timer_Module_State_0_intFreqs__A
00821414   ti_sysbios_timers_timer64_Timer_Module__diagsEnabled__C
00821418   ti_sysbios_timers_timer64_Timer_Module__diagsIncluded__C
0082141c   ti_sysbios_timers_timer64_Timer_Module__diagsMask__C
00821594   ti_sysbios_timers_timer64_Timer_Module__id__C
0081b5c8   ti_sysbios_timers_timer64_Timer_Module__root__V
82237fc0   ti_sysbios_timers_timer64_Timer_Module__startupDone__F
8223a100   ti_sysbios_timers_timer64_Timer_Module__startupDone__S
0081b5d0   ti_sysbios_timers_timer64_Timer_Module__state__V
8223a120   ti_sysbios_timers_timer64_Timer_Module_startup__E
82213a80   ti_sysbios_timers_timer64_Timer_Module_startup__F
0081c660   ti_sysbios_timers_timer64_Timer_Object__table__V
8223a140   ti_sysbios_timers_timer64_Timer_TimerSupportProxy_enable__E
00821420   ti_sysbios_timers_timer64_Timer_anyMask__C
00821424   ti_sysbios_timers_timer64_Timer_freqDivisor__C
82234d20   ti_sysbios_timers_timer64_Timer_getCount__E
82234d20   ti_sysbios_timers_timer64_Timer_getExpiredCounts__E
82227fa0   ti_sysbios_timers_timer64_Timer_getFreq__E
82234da0   ti_sysbios_timers_timer64_Timer_getPeriod__E
00821428   ti_sysbios_timers_timer64_Timer_numLocalTimers__C
0082142c   ti_sysbios_timers_timer64_Timer_numTimerDevices__C
8223a160   ti_sysbios_timers_timer64_Timer_setNextTick__E
82228c00   ti_sysbios_timers_timer64_Timer_setPeriodMicroSecs__E
82229fa0   ti_sysbios_timers_timer64_Timer_start__E
00821598   ti_sysbios_timers_timer64_Timer_startupNeeded__C
82230bc0   ti_sysbios_timers_timer64_Timer_startup__E
82232960   ti_sysbios_timers_timer64_Timer_stop__E
82239ae0   ti_sysbios_xdcruntime_GateProcessSupport_query__F
00821430   ti_sysbios_xdcruntime_GateThreadSupport_Instance_State_gate__O
82238000   ti_sysbios_xdcruntime_GateThreadSupport_Instance_finalize__F
82238040   ti_sysbios_xdcruntime_GateThreadSupport_Instance_init__F
0081b5e4   ti_sysbios_xdcruntime_GateThreadSupport_Module__root__V
00820c3c   ti_sysbios_xdcruntime_GateThreadSupport_Object__DESC__C
00820dc8   ti_sysbios_xdcruntime_GateThreadSupport_Object__PARAMS__C
82234e20   ti_sysbios_xdcruntime_GateThreadSupport_Object__create__S
82236360   ti_sysbios_xdcruntime_GateThreadSupport_Object__delete__S
8223a180   ti_sysbios_xdcruntime_GateThreadSupport_enter__E
82238080   ti_sysbios_xdcruntime_GateThreadSupport_enter__F
8223a1a0   ti_sysbios_xdcruntime_GateThreadSupport_leave__E
8222e4c0   ti_sysbios_xdcruntime_GateThreadSupport_leave__F
8223a1c0   ti_sysbios_xdcruntime_GateThreadSupport_query__E
82239ae0   ti_sysbios_xdcruntime_GateThreadSupport_query__F
8221e1cc   transpose_1
8221e160   transpose_2
82231820   transpose_2Cols_rowsX8_cplxMatrix_sa
822318e0   transpose_2Rows_8XCols_cplxMatrix_sa
82227220   tw_gen
82234ea0   unlink
008227c4   userInitConfig
00814380   userInstInitConfigArray
8222e6e0   vlfftBuffersInit
8220db54   vlfftEdmaConfig_1stIter
8220d86c   vlfftEdmaConfig_2ndIter
8220d858   vlfftEdmaConfig_srcAddrdstAddr
8220d80c   vlfftEdmaConfig_srcAddrdstAddr_1
8220d7e8   vlfftEdmaConfig_srcAddrdstAddr_aCntbCntcCnt
8220d760   vlfftEdmaConfig_srcAddrdstAddr_aCntbCntcCnt_1
82232a20   vlfftEdmaInit
8222e5e0   vlfftParamsInit
82206804   vlfft_master
822064cc   vlfft_slave
822064c0   vlfft_system_reset
0083e000   vlfft_twiddle
0083a000   vlfft_w1
0083c000   vlfft_w2
00826000   workBuf0Internal
81200000   workBufExternal
82232ae0   write
822363c0   writemsg
00821434   xdc_runtime_Assert_E_assertFailed__C
82233900   xdc_runtime_Assert_raise__I
00821438   xdc_runtime_Core_A_initializedParams__C
0082143c   xdc_runtime_Core_Module__diagsEnabled__C
00821440   xdc_runtime_Core_Module__diagsIncluded__C
00821444   xdc_runtime_Core_Module__diagsMask__C
0082159c   xdc_runtime_Core_Module__id__C
82234f20   xdc_runtime_Core_assignLabel__I
82234fa0   xdc_runtime_Core_assignParams__I
82223440   xdc_runtime_Core_createObject__I
8222f720   xdc_runtime_Core_deleteObject__I
00821448   xdc_runtime_Error_E_generic__C
0082144c   xdc_runtime_Error_E_memory__C
00821450   xdc_runtime_Error_Module__diagsEnabled__C
00821454   xdc_runtime_Error_Module__diagsIncluded__C
00821458   xdc_runtime_Error_Module__diagsMask__C
008215a0   xdc_runtime_Error_Module__loggerDefined__C
0082145c   xdc_runtime_Error_Module__loggerFxn8__C
00821460   xdc_runtime_Error_Module__loggerObj__C
0081b5ec   xdc_runtime_Error_Module__state__V
8223a200   xdc_runtime_Error_check__E
82238100   xdc_runtime_Error_check__F
8223a220   xdc_runtime_Error_init__E
82238140   xdc_runtime_Error_init__F
008215a4   xdc_runtime_Error_maxDepth__C
00821464   xdc_runtime_Error_policy__C
8223a240   xdc_runtime_Error_print__E
82230ca0   xdc_runtime_Error_print__F
00821468   xdc_runtime_Error_raiseHook__C
82238180   xdc_runtime_Error_raiseX__E
822236c0   xdc_runtime_Error_raiseX__F
822381c0   xdc_runtime_GateNull_Handle__label__S
00820800   xdc_runtime_GateNull_Module__FXNS__C
0081b5f0   xdc_runtime_GateNull_Module__root__V
00820c5c   xdc_runtime_GateNull_Object__DESC__C
00820de0   xdc_runtime_GateNull_Object__PARAMS__C
82236420   xdc_runtime_GateNull_Object__create__S
82238200   xdc_runtime_GateNull_Object__delete__S
0081cb00   xdc_runtime_GateNull_Object__table__V
8223a260   xdc_runtime_GateNull_enter__E
8223a280   xdc_runtime_GateNull_enter__F
8223a2a0   xdc_runtime_GateNull_leave__E
8223a2c0   xdc_runtime_GateNull_leave__F
8223a2e0   xdc_runtime_GateNull_query__E
8223a300   xdc_runtime_GateNull_query__F
8223a320   xdc_runtime_Gate_enterSystem__E
8223a340   xdc_runtime_Gate_enterSystem__F
8223a360   xdc_runtime_Gate_leaveSystem__E
82238240   xdc_runtime_Gate_leaveSystem__F
0082146c   xdc_runtime_IGateProvider_Interface__BASE__C
00821470   xdc_runtime_IHeap_Interface__BASE__C
00821474   xdc_runtime_IModule_Interface__BASE__C
00821478   xdc_runtime_Log_L_error__C
008215a8   xdc_runtime_Main_Module__id__C
8223a380   xdc_runtime_Memory_HeapProxy_alloc__E
8223a3a0   xdc_runtime_Memory_HeapProxy_free__E
008215ac   xdc_runtime_Memory_Module__id__C
0081b5f8   xdc_runtime_Memory_Module__state__V
8223a3c0   xdc_runtime_Memory_alloc__E
82230d80   xdc_runtime_Memory_alloc__F
8223a3e0   xdc_runtime_Memory_calloc__E
82236480   xdc_runtime_Memory_calloc__F
0082147c   xdc_runtime_Memory_defaultHeapInstance__C
8223a400   xdc_runtime_Memory_free__E
82238300   xdc_runtime_Memory_free__F
8223a420   xdc_runtime_Memory_getMaxDefaultTypeAlign__E
8223a440   xdc_runtime_Memory_getMaxDefaultTypeAlign__F
0081b5fc   xdc_runtime_Registry_Module__state__V
8223a460   xdc_runtime_Registry_findById__E
82238340   xdc_runtime_Registry_findById__F
8223a480   xdc_runtime_Startup_Module__startupDone__S
0081b604   xdc_runtime_Startup_Module__state__V
00000001   xdc_runtime_Startup__EXECFXN__C
00000001   xdc_runtime_Startup__RESETFXN__C
00821480   xdc_runtime_Startup_execImpl__C
8223a4a0   xdc_runtime_Startup_exec__E
8222f820   xdc_runtime_Startup_exec__F
82238380   xdc_runtime_Startup_exec__I
00820fa0   xdc_runtime_Startup_firstFxns__A
00820e84   xdc_runtime_Startup_firstFxns__C
00821490   xdc_runtime_Startup_lastFxns__A
00820ea4   xdc_runtime_Startup_lastFxns__C
00821484   xdc_runtime_Startup_maxPasses__C
8223a4c0   xdc_runtime_Startup_reset__I
8223a4e0   xdc_runtime_Startup_rtsDone__E
8223a500   xdc_runtime_Startup_rtsDone__F
00820830   xdc_runtime_Startup_sfxnRts__A
00821488   xdc_runtime_Startup_sfxnRts__C
00820270   xdc_runtime_Startup_sfxnTab__A
0082148c   xdc_runtime_Startup_sfxnTab__C
00821494   xdc_runtime_Startup_startModsFxn__C
82224520   xdc_runtime_Startup_startMods__I
8223a520   xdc_runtime_SysStd_abort__E
822364e0   xdc_runtime_SysStd_abort__F
8223a540   xdc_runtime_SysStd_exit__E
8223a560   xdc_runtime_SysStd_exit__F
8223a580   xdc_runtime_SysStd_putch__E
8223a5a0   xdc_runtime_SysStd_putch__F
8223a5c0   xdc_runtime_SysStd_ready__E
8223a5e0   xdc_runtime_SysStd_ready__F
8223a600   xdc_runtime_System_Module_GateProxy_enter__E
8223a620   xdc_runtime_System_Module_GateProxy_leave__E
0081c950   xdc_runtime_System_Module_State_0_atexitHandlers__A
00821498   xdc_runtime_System_Module__gateObj__C
0081b60c   xdc_runtime_System_Module__state__V
8223a640   xdc_runtime_System_Module_startup__E
8223a660   xdc_runtime_System_Module_startup__F
8223a680   xdc_runtime_System_SupportProxy_abort__E
8223a6a0   xdc_runtime_System_SupportProxy_exit__E
8223a6c0   xdc_runtime_System_SupportProxy_putch__E
8223a6e0   xdc_runtime_System_SupportProxy_ready__E
8223a700   xdc_runtime_System_abort__E
822383c0   xdc_runtime_System_abort__F
82238400   xdc_runtime_System_aprintf__E
82236540   xdc_runtime_System_aprintf_va__F
8223a720   xdc_runtime_System_atexit__E
82235020   xdc_runtime_System_atexit__F
82236540   xdc_runtime_System_avprintf__F
82208d20   xdc_runtime_System_doPrint__I
8223a740   xdc_runtime_System_exit__E
8223a760   xdc_runtime_System_exit__F
0082149c   xdc_runtime_System_extendFxn__C
82232ba0   xdc_runtime_System_formatNum__I
8223a780   xdc_runtime_System_lastFxn__I
008214a0   xdc_runtime_System_maxAtexitHandlers__C
8221c840   xdc_runtime_System_printfExtend__I
82238440   xdc_runtime_System_printf__E
822365a0   xdc_runtime_System_printf_va__F
822350a0   xdc_runtime_System_rtsExit__I
82238480   xdc_runtime_System_sprintf__E
8223a7c0   xdc_runtime_System_sprintf_va__F
822365a0   xdc_runtime_System_vprintf__F
8223a7a0   xdc_runtime_System_vsprintf__E
8223a7c0   xdc_runtime_System_vsprintf__F
0081b618   xdc_runtime_Text_Module__state__V
008215b0   xdc_runtime_Text_charCnt__C
0081cb10   xdc_runtime_Text_charTab__A
008214a4   xdc_runtime_Text_charTab__C
8223a7e0   xdc_runtime_Text_cordText__E
82236600   xdc_runtime_Text_cordText__F
008215b4   xdc_runtime_Text_isLoaded__C
008214a8   xdc_runtime_Text_nameEmpty__C
008214ac   xdc_runtime_Text_nameStatic__C
008214b0   xdc_runtime_Text_nameUnknown__C
0081faa0   xdc_runtime_Text_nodeTab__A
008214b4   xdc_runtime_Text_nodeTab__C
82235120   xdc_runtime_Text_printVisFxn__I
8223a800   xdc_runtime_Text_putLab__E
8222e700   xdc_runtime_Text_putLab__F
8222f920   xdc_runtime_Text_putMod__F
8223a820   xdc_runtime_Text_putSite__E
8222b640   xdc_runtime_Text_putSite__F
008215b8   xdc_runtime_Text_registryModsLastId__C
8223a840   xdc_runtime_Text_ropeText__E
822384c0   xdc_runtime_Text_ropeText__F
008215bc   xdc_runtime_Text_unnamedModsLastId__C
8222fa20   xdc_runtime_Text_visitRope2__I
008214b8   xdc_runtime_Text_visitRopeFxn__C
82238500   xdc_runtime_Text_visitRope__I
822351a0   xdc_runtime_Text_xprintf__I
8223a860   xdc_runtime_Timestamp_SupportProxy_get32__E
8223a880   xdc_runtime_Timestamp_get32__E
8223a860   xdc_runtime_Timestamp_get32__F
82238540   xdc_runtime_knl_GateThread_Handle__label__S
82238580   xdc_runtime_knl_GateThread_Instance_finalize__F
822385c0   xdc_runtime_knl_GateThread_Instance_init__F
00820854   xdc_runtime_knl_GateThread_Module__FXNS__C
0081b620   xdc_runtime_knl_GateThread_Module__root__V
8223a8a0   xdc_runtime_knl_GateThread_Module__startupDone__S
00820c7c   xdc_runtime_knl_GateThread_Object__DESC__C
00820df8   xdc_runtime_knl_GateThread_Object__PARAMS__C
82232c60   xdc_runtime_knl_GateThread_Object__create__S
82236660   xdc_runtime_knl_GateThread_Object__delete__S
82238600   xdc_runtime_knl_GateThread_Proxy_Object__create__S
8223a8c0   xdc_runtime_knl_GateThread_Proxy_Object__delete__S
8223a8e0   xdc_runtime_knl_GateThread_Proxy_enter__E
8223a900   xdc_runtime_knl_GateThread_Proxy_leave__E
8223a920   xdc_runtime_knl_GateThread_Proxy_query__E
8223a940   xdc_runtime_knl_GateThread_enter__E
8223a960   xdc_runtime_knl_GateThread_enter__F
8223a980   xdc_runtime_knl_GateThread_leave__E
8223a9a0   xdc_runtime_knl_GateThread_leave__F
8223a9c0   xdc_runtime_knl_GateThread_query__E
8223a920   xdc_runtime_knl_GateThread_query__F
008214bc   xdc_runtime_knl_ISync_Interface__BASE__C


GLOBAL SYMBOLS: SORTED BY Symbol Address 

address    name
--------   ----
00000000   _argsize
00000001   __TI_args_main
00000001   xdc_runtime_Startup__EXECFXN__C
00000001   xdc_runtime_Startup__RESETFXN__C
00001000   __TI_STACK_SIZE
00800000   __ASM__
00800000   ti_sdo_utils_NameServer_Module_State_0_nsRemoteHandle__A
00800010   ti_sysbios_heaps_HeapMem_Instance_State_0_buf__A
008000a0   __ISA__
008000c0   __PLAT__
008000f0   __TARG__
00800120   __TRDR__
00808010   ti_sysbios_knl_Task_Instance_State_0_hookEnv__A
00808020   drvObj
008088d0   drvInstance
0080a7f0   edma3DrvChBoundRes
0080fa10   edma3_dma_ch_max_val
0080fa20   edma3_link_ch_min_val
0080fa30   edma3_link_ch_max_val
0080fa40   edma3_qdma_ch_min_val
0080fa50   edma3_qdma_ch_max_val
0080fa60   edma3_log_ch_max_val
0080fa70   resMgrObj
00814380   userInstInitConfigArray
00815340   resMgrInstanceArray
00816ba0   ti_sysbios_knl_Task_Instance_State_0_stack__A
008173a0   _tmpnams
008175c0   localQueueName
008175d0   nextQueueName
008175e0   core0QueueName
008175f0   core1QueueName
00817600   core2QueueName
00817610   core3QueueName
00817620   core4QueueName
00817630   core5QueueName
00817640   core6QueueName
00817650   core7QueueName
00817660   defInstInitConfig
00818620   sampleInstInitConfig
008195e0   edma3GblCfgParams
00819e68   _lock
00819e6c   _unlock
00819e70   sampleEdma3GblCfgParams
0081a6f8   _ft_end
0081a700   ti_sdo_ipc_GateMP_Module_State_0_remoteCustom1Gates__A
0081af00   ti_sdo_ipc_GateMP_Module__root__V
0081af08   ti_sdo_ipc_GateMP_Module__state__V
0081af50   ti_sdo_ipc_Ipc_Module__state__V
0081af5c   ti_sdo_ipc_ListMP_Module__root__V
0081af64   ti_sdo_ipc_ListMP_Module__state__V
0081af68   ti_sdo_ipc_MessageQ_Module__root__V
0081af70   ti_sdo_ipc_MessageQ_Module__state__V
0081af8c   ti_sdo_ipc_Notify_Module__root__V
0081af94   ti_sdo_ipc_Notify_Module__state__V
0081af9c   ti_sdo_ipc_SharedRegion_Module__state__V
0081afa0   ti_sdo_ipc_family_c647x_Interrupt_Module__state__V
0081afa8   ti_sdo_ipc_gates_GateHWSem_Module__root__V
0081afb0   ti_sdo_ipc_gates_GateMPSupportNull_Module__root__V
0081afb8   ti_sdo_ipc_gates_GatePeterson_Module__root__V
0081afc0   ti_sdo_ipc_heaps_HeapBufMP_Module__root__V
0081afc8   ti_sdo_ipc_heaps_HeapBufMP_Module__state__V
0081afcc   ti_sdo_ipc_heaps_HeapMemMP_Module__root__V
0081afd4   ti_sdo_ipc_heaps_HeapMemMP_Module__state__V
0081afd8   ti_sdo_ipc_notifyDrivers_NotifyDriverCirc_Module__root__V
0081afe0   ti_sdo_ipc_nsremote_NameServerRemoteNotify_Module__root__V
0081afe8   ti_sdo_ipc_transports_TransportShmNotify_Module__root__V
0081aff0   ti_sdo_ipc_transports_TransportShmNotifySetup_Module__state__V
0081aff4   ti_sdo_utils_List_Module__root__V
0081affc   ti_sdo_utils_MultiProc_Module__state__V
0081b000   ti_sdo_utils_NameServer_Module__root__V
0081b008   ti_sdo_utils_NameServer_Module__state__V
0081b010   ti_sdo_utils_NameServerRemoteNull_Module__root__V
0081b018   ti_sysbios_BIOS_Module__state__V
0081b034   ti_sysbios_family_c64p_EventCombiner_Module__state__V
0081b434   ti_sysbios_family_c64p_Exception_Module__state__V
0081b460   ti_sysbios_family_c64p_Hwi_Module__root__V
0081b468   ti_sysbios_family_c64p_Hwi_Module__state__V
0081b4cc   ti_sysbios_family_c66_tci66xx_CpIntc_Module__state__V
0081b4dc   ti_sysbios_gates_GateAll_Module__root__V
0081b4e4   ti_sysbios_gates_GateHwi_Module__root__V
0081b4ec   ti_sysbios_gates_GateMutex_Module__root__V
0081b4f4   ti_sysbios_gates_GateMutexPri_Module__root__V
0081b4fc   ti_sysbios_gates_GateSwi_Module__root__V
0081b504   ti_sysbios_hal_Hwi_Module__root__V
0081b50c   ti_sysbios_hal_Timer_Module__root__V
0081b514   ti_sysbios_heaps_HeapMem_Module__root__V
0081b51c   ti_sysbios_knl_Clock_Module__root__V
0081b524   ti_sysbios_knl_Clock_Module__state__V
0081b550   ti_sysbios_knl_Queue_Module__root__V
0081b558   ti_sysbios_knl_Semaphore_Module__root__V
0081b560   ti_sysbios_knl_Swi_Module__root__V
0081b568   ti_sysbios_knl_Swi_Module__state__V
0081b584   ti_sysbios_knl_Task_Module__root__V
0081b58c   ti_sysbios_knl_Task_Module__state__V
0081b5c0   ti_sysbios_syncs_SyncSem_Module__root__V
0081b5c8   ti_sysbios_timers_timer64_Timer_Module__root__V
0081b5d0   ti_sysbios_timers_timer64_Timer_Module__state__V
0081b5e4   ti_sysbios_xdcruntime_GateThreadSupport_Module__root__V
0081b5ec   xdc_runtime_Error_Module__state__V
0081b5f0   xdc_runtime_GateNull_Module__root__V
0081b5f8   xdc_runtime_Memory_Module__state__V
0081b5fc   xdc_runtime_Registry_Module__state__V
0081b604   xdc_runtime_Startup_Module__state__V
0081b60c   xdc_runtime_System_Module__state__V
0081b618   xdc_runtime_Text_Module__state__V
0081b620   xdc_runtime_knl_GateThread_Module__root__V
0081b628   __xdc__init__addr
0081b630   ti_sysbios_family_c66_tci66xx_CpIntc_Module_State_0_dispatchTab__A
0081bcb0   _ftable
0081be90   ti_sdo_utils_NameServer_Object__table__V
0081bfb0   ti_sysbios_timers_timer64_Timer_Module_State_0_device__A
0081c110   ti_sdo_ipc_SharedRegion_Module_State_0_regions__A
0081c1a0   ti_sdo_ipc_GateMP_Module_State_0_remoteSystemGates__A
0081c220   ti_sysbios_knl_Swi_Module_State_0_readyQ__A
0081c2a0   ti_sysbios_knl_Task_Module_State_0_readyQ__A
0081c3a0   ti_sysbios_family_c64p_Hwi_Object__table__V
0081c420   ti_sysbios_family_c66_tci66xx_CpIntc_Module_State_0_hostIntToSysInt__A
0081c490   ccXferCompInt
0081c4f0   ccXferHostInt
0081c550   edma3ErrHostInt
0081c5b0   tcErrorInt
0081c610   ti_sdo_ipc_Ipc_Module_State_0_procEntry__A
0081c660   ti_sysbios_timers_timer64_Timer_Object__table__V
0081c6b0   TSK_idle
0081c6b0   ti_sysbios_knl_Task_Object__table__V
0081c6f4   _cleanup_ptr
0081c6f8   _dtors_ptr
0081c6fc   __TI_enable_exit_profile_output
0081c780   ti_sysbios_gates_GateMutex_Object__table__V
0081c7c0   ti_sysbios_timers_timer64_Timer_Module_State_0_gctrl__A
0081c800   ti_sysbios_timers_timer64_Timer_Module_State_0_handles__A
0081c840   ti_sysbios_timers_timer64_Timer_Module_State_0_intFreqs__A
0081c880   ti_sysbios_knl_Swi_Object__table__V
0081c8b0   gblCfgReqdArray
0081c8d0   ptrEdma3TcIsrHandler
0081c8f0   ti_sdo_ipc_MessageQ_Module_State_0_heaps__A
0081c910   ti_sdo_ipc_MessageQ_Module_State_0_transports__A
0081c930   ti_sdo_ipc_family_c647x_Interrupt_Module_State_0_fxnTable__A
0081c950   xdc_runtime_System_Module_State_0_atexitHandlers__A
0081c970   ti_sysbios_family_c66_tci66xx_CpIntc_Module_State_0_initSIER__A
0081c9b0   ti_sysbios_gates_GateMutexPri_Object__table__V
0081c9d0   ti_sysbios_heaps_HeapMem_Object__table__V
0081c9f0   ti_sdo_ipc_Notify_Module_State_0_notifyHandles__A
0081ca00   ti_sdo_ipc_transports_TransportShmNotifySetup_Module_State_0_handles__A
0081ca10   ti_sysbios_gates_GateAll_Object__table__V
0081ca20   ccErrorInt
0081ca40   numEdma3Tc
0081ca50   semHandle
0081ca60   ti_sysbios_family_c66_tci66xx_CpIntc_Module_State_0_controller__A
0081ca70   ti_sysbios_gates_GateSwi_Object__table__V
0081ca80   ti_sysbios_hal_Hwi_Object__table__V
0081ca90   ti_sysbios_hal_Timer_Object__table__V
0081caa0   ti_sdo_ipc_GateMP_Module_State_0_remoteCustom2Gates__A
0081cab0   ti_sdo_ipc_Notify_Module_State_0_notifyHandles_0__A
0081cac0   ti_sdo_ipc_Notify_Module_State_0_notifyHandles_1__A
0081cad0   ti_sdo_ipc_Notify_Module_State_0_notifyHandles_2__A
0081cae0   ti_sdo_ipc_Notify_Module_State_0_notifyHandles_3__A
0081caf0   ti_sysbios_gates_GateHwi_Object__table__V
0081cb00   xdc_runtime_GateNull_Object__table__V
0081cb10   xdc_runtime_Text_charTab__A
0081f4f0   ti_sysbios_family_c66_Cache_marvalues__C
0081faa0   xdc_runtime_Text_nodeTab__A
0081fc20   _ctypes_
0081fe20   ti_sysbios_family_c66_tci66xx_CpIntc_sysIntToHostInt__A
0082008c   ti_sdo_ipc_GateMP_A_invalidClose__C
00820090   ti_sysbios_family_c66_tci66xx_CpIntc_hostIntToEventId__A
0082026c   ti_sdo_ipc_GateMP_A_invalidDelete__C
00820270   xdc_runtime_Startup_sfxnTab__A
00820338   ti_sdo_ipc_heaps_HeapBufMP_Object__PARAMS__C
00820370   ti_sdo_ipc_notifyDrivers_NotifyDriverCirc_Module__FXNS__C
008203a8   ti_sysbios_knl_Task_Object__PARAMS__C
008203e0   ti_sdo_ipc_GateMP_Object__PARAMS__C
00820414   ti_sdo_ipc_notifyDrivers_NotifyDriverCirc_Object__PARAMS__C
00820448   ti_sdo_ipc_heaps_HeapMemMP_Object__PARAMS__C
00820478   ti_sysbios_family_c64p_Hwi_Object__PARAMS__C
008204d4   ti_sdo_ipc_ListMP_Object__PARAMS__C
00820500   ti_sdo_ipc_gates_GateHWSem_Module__FXNS__C
0082052c   ti_sdo_ipc_gates_GateMPSupportNull_Module__FXNS__C
00820558   ti_sdo_ipc_gates_GatePeterson_Module__FXNS__C
00820584   ti_sdo_ipc_heaps_HeapBufMP_Module__FXNS__C
008205ac   ti_sdo_ipc_heaps_HeapMemMP_Module__FXNS__C
008205d4   ti_sdo_ipc_nsremote_NameServerRemoteNotify_Module__FXNS__C
008205fc   ti_sdo_ipc_transports_TransportShmNotify_Module__FXNS__C
00820624   ti_sysbios_heaps_HeapMem_Module__FXNS__C
0082064c   ti_sysbios_knl_Swi_Object__PARAMS__C
00820674   ti_sdo_ipc_gates_GateHWSem_Object__PARAMS__C
00820698   ti_sdo_ipc_gates_GateMPSupportNull_Object__PARAMS__C
008206bc   ti_sdo_ipc_gates_GatePeterson_Object__PARAMS__C
008206e0   ti_sysbios_gates_GateAll_Module__FXNS__C
00820704   ti_sysbios_gates_GateHwi_Module__FXNS__C
00820728   ti_sysbios_gates_GateMutexPri_Module__FXNS__C
0082074c   ti_sysbios_gates_GateMutex_Module__FXNS__C
00820770   ti_sysbios_gates_GateSwi_Module__FXNS__C
00820794   ti_sysbios_knl_Clock_Object__PARAMS__C
008207b8   ti_sysbios_knl_Semaphore_Object__PARAMS__C
008207dc   ti_sysbios_syncs_SyncSem_Module__FXNS__C
00820800   xdc_runtime_GateNull_Module__FXNS__C
00820824   ti_sysbios_family_c66_Cache_initSize__C
00820830   xdc_runtime_Startup_sfxnRts__A
00820854   xdc_runtime_knl_GateThread_Module__FXNS__C
008208bc   ti_sdo_ipc_GateMP_Object__DESC__C
008208dc   ti_sdo_ipc_ListMP_Object__DESC__C
008208fc   ti_sdo_ipc_MessageQ_Object__DESC__C
0082091c   ti_sdo_ipc_Notify_Object__DESC__C
0082093c   ti_sdo_ipc_gates_GateHWSem_Object__DESC__C
0082095c   ti_sdo_ipc_gates_GateMPSupportNull_Object__DESC__C
0082097c   ti_sdo_ipc_gates_GatePeterson_Object__DESC__C
0082099c   ti_sdo_ipc_heaps_HeapBufMP_Object__DESC__C
008209bc   ti_sdo_ipc_heaps_HeapMemMP_Object__DESC__C
008209dc   ti_sdo_ipc_notifyDrivers_NotifyDriverCirc_Object__DESC__C
008209fc   ti_sdo_ipc_nsremote_NameServerRemoteNotify_Object__DESC__C
00820a1c   ti_sdo_ipc_nsremote_NameServerRemoteNotify_Object__PARAMS__C
00820a3c   ti_sdo_ipc_transports_TransportShmNotify_Object__DESC__C
00820a5c   ti_sdo_utils_List_Object__DESC__C
00820a7c   ti_sysbios_family_c64p_Hwi_Object__DESC__C
00820a9c   ti_sysbios_gates_GateAll_Object__DESC__C
00820abc   ti_sysbios_gates_GateHwi_Object__DESC__C
00820adc   ti_sysbios_gates_GateMutexPri_Object__DESC__C
00820afc   ti_sysbios_gates_GateMutex_Object__DESC__C
00820b1c   ti_sysbios_gates_GateSwi_Object__DESC__C
00820b3c   ti_sysbios_heaps_HeapMem_Object__DESC__C
00820b5c   ti_sysbios_heaps_HeapMem_Object__PARAMS__C
00820b7c   ti_sysbios_knl_Clock_Object__DESC__C
00820b9c   ti_sysbios_knl_Queue_Object__DESC__C
00820bbc   ti_sysbios_knl_Semaphore_Object__DESC__C
00820bdc   ti_sysbios_knl_Swi_Object__DESC__C
00820bfc   ti_sysbios_knl_Task_Object__DESC__C
00820c1c   ti_sysbios_syncs_SyncSem_Object__DESC__C
00820c3c   ti_sysbios_xdcruntime_GateThreadSupport_Object__DESC__C
00820c5c   xdc_runtime_GateNull_Object__DESC__C
00820c7c   xdc_runtime_knl_GateThread_Object__DESC__C
00820c9c   ti_sdo_ipc_MessageQ_Object__PARAMS__C
00820cb8   ti_sdo_ipc_transports_TransportShmNotify_Object__PARAMS__C
00820cd4   ti_sysbios_syncs_SyncSem_Object__PARAMS__C
00820cf0   ti_sdo_ipc_Notify_Object__PARAMS__C
00820d08   ti_sdo_utils_List_Object__PARAMS__C
00820d20   ti_sysbios_gates_GateAll_Object__PARAMS__C
00820d38   ti_sysbios_gates_GateHwi_Object__PARAMS__C
00820d50   ti_sysbios_gates_GateMutexPri_Object__PARAMS__C
00820d68   ti_sysbios_gates_GateMutex_Object__PARAMS__C
00820d80   ti_sysbios_gates_GateSwi_Object__PARAMS__C
00820d98   ti_sysbios_knl_Queue_Object__PARAMS__C
00820db0   ti_sysbios_knl_Task_hooks__A
00820dc8   ti_sysbios_xdcruntime_GateThreadSupport_Object__PARAMS__C
00820de0   xdc_runtime_GateNull_Object__PARAMS__C
00820df8   xdc_runtime_knl_GateThread_Object__PARAMS__C
00820e2c   ti_sdo_ipc_GateMP_E_gateUnavailable__C
00820e44   ti_sysbios_knl_Idle_funcList__C
00820e4c   ti_sdo_ipc_GateMP_E_localGate__C
00820e64   ti_sysbios_knl_Task_hooks__C
00820e6c   ti_sdo_ipc_GateMP_LM_create__C
00820e84   xdc_runtime_Startup_firstFxns__C
00820e8c   ti_sdo_ipc_GateMP_LM_delete__C
00820ea4   xdc_runtime_Startup_lastFxns__C
00820eac   ti_sdo_ipc_GateMP_LM_enter__C
00820ec4   ti_sdo_ipc_GateMP_LM_leave__C
00820ec8   ti_sdo_ipc_GateMP_LM_open__C
00820ecc   ti_sdo_ipc_GateMP_Module__diagsEnabled__C
00820ee4   ti_sdo_ipc_GateMP_Module__diagsIncluded__C
00820ee8   ti_sdo_ipc_GateMP_Module__diagsMask__C
00820eec   ti_sdo_ipc_GateMP_Module__loggerFxn2__C
00820f04   ti_sdo_ipc_GateMP_Module__loggerFxn4__C
00820f08   ti_sdo_ipc_GateMP_Module__loggerObj__C
00820f0c   ti_sdo_ipc_Ipc_A_addrNotCacheAligned__C
00820f24   ti_sdo_ipc_Ipc_A_addrNotInSharedRegion__C
00820f28   ti_sdo_ipc_Ipc_A_internal__C
00820f2c   ti_sdo_ipc_Ipc_A_invArgument__C
00820f60   ti_sdo_utils_MultiProc_nameList__A
00820f70   ti_sysbios_family_c64p_EventCombiner_EVTMASK__C
00820f9c   ti_sdo_ipc_Ipc_A_invParam__C
00820fa0   xdc_runtime_Startup_firstFxns__A
00820fac   ti_sdo_ipc_Ipc_A_nullArgument__C
00820fbc   ti_sdo_ipc_Ipc_A_nullPointer__C
00820fc0   ti_sdo_ipc_family_c647x_MultiProcSetup_procMap__A
00820fc8   ti_sdo_ipc_Ipc_E_internal__C
00820fcc   ti_sdo_ipc_Ipc_E_nameFailed__C
00820fd0   ti_sdo_utils_MultiProc_procIdList__A
00820fd8   ti_sdo_ipc_Ipc_E_versionMismatch__C
00820fdc   ti_sdo_ipc_Ipc_Module__diagsEnabled__C
00820fe0   ti_sdo_ipc_Ipc_Module__diagsIncluded__C
00820fe4   ti_sdo_ipc_Ipc_Module__diagsMask__C
00820fe8   ti_sdo_ipc_Ipc_numUserFxns__C
00820fec   ti_sdo_ipc_Ipc_procSync__C
00820ff0   ti_sdo_ipc_Ipc_userFxns__C
00820ff4   ti_sdo_ipc_ListMP_Module__diagsEnabled__C
00820ff8   ti_sdo_ipc_ListMP_Module__diagsIncluded__C
00820ffc   ti_sdo_ipc_ListMP_Module__diagsMask__C
00821000   ti_sdo_ipc_MessageQ_A_heapIdInvalid__C
00821004   ti_sdo_ipc_MessageQ_A_invalidMsg__C
00821008   ti_sdo_ipc_MessageQ_A_invalidObj__C
0082100c   ti_sdo_ipc_MessageQ_A_invalidParam__C
00821010   ti_sdo_ipc_MessageQ_A_invalidQueueId__C
00821014   ti_sdo_ipc_MessageQ_A_procIdInvalid__C
00821018   ti_sdo_ipc_MessageQ_A_unregisteredTransport__C
0082101c   ti_sdo_ipc_MessageQ_E_maxReached__C
00821020   ti_sdo_ipc_MessageQ_E_nameFailed__C
00821024   ti_sdo_ipc_MessageQ_Instance_State_highList__O
00821028   ti_sdo_ipc_MessageQ_Instance_State_normalList__O
0082102c   ti_sdo_ipc_MessageQ_LM_alloc__C
00821030   ti_sdo_ipc_MessageQ_LM_get__C
00821034   ti_sdo_ipc_MessageQ_LM_putLocal__C
00821038   ti_sdo_ipc_MessageQ_Module__diagsEnabled__C
0082103c   ti_sdo_ipc_MessageQ_Module__diagsIncluded__C
00821040   ti_sdo_ipc_MessageQ_Module__diagsMask__C
00821044   ti_sdo_ipc_MessageQ_Module__loggerFxn4__C
00821048   ti_sdo_ipc_MessageQ_Module__loggerObj__C
0082104c   ti_sdo_ipc_MessageQ_Object__count__C
00821050   ti_sdo_ipc_MessageQ_Object__heap__C
00821054   ti_sdo_ipc_MessageQ_Object__table__C
00821058   ti_sdo_ipc_MessageQ_maxRuntimeEntries__C
0082105c   ti_sdo_ipc_Notify_A_alreadyRegistered__C
00821060   ti_sdo_ipc_Notify_A_internal__C
00821064   ti_sdo_ipc_Notify_A_invArgument__C
00821068   ti_sdo_ipc_Notify_A_notRegistered__C
0082106c   ti_sdo_ipc_Notify_A_reservedEvent__C
00821070   ti_sdo_ipc_Notify_Module__diagsEnabled__C
00821074   ti_sdo_ipc_Notify_Module__diagsIncluded__C
00821078   ti_sdo_ipc_Notify_Module__diagsMask__C
0082107c   ti_sdo_ipc_Notify_Module__gateObj__C
00821080   ti_sdo_ipc_Notify_Object__heap__C
00821084   ti_sdo_ipc_Notify_numEvents__C
00821088   ti_sdo_ipc_SharedRegion_A_addrOutOfRange__C
0082108c   ti_sdo_ipc_SharedRegion_A_idTooLarge__C
00821090   ti_sdo_ipc_SharedRegion_A_noHeap__C
00821094   ti_sdo_ipc_SharedRegion_A_region0Invalid__C
00821098   ti_sdo_ipc_SharedRegion_A_regionInvalid__C
0082109c   ti_sdo_ipc_SharedRegion_A_reserveTooMuch__C
008210a0   ti_sdo_ipc_SharedRegion_INVALIDSRPTR__C
008210a4   ti_sdo_ipc_SharedRegion_Module__diagsEnabled__C
008210a8   ti_sdo_ipc_SharedRegion_Module__diagsIncluded__C
008210ac   ti_sdo_ipc_SharedRegion_Module__diagsMask__C
008210b0   ti_sdo_ipc_SharedRegion_cacheLineSize__C
008210b4   ti_sdo_ipc_SharedRegion_numOffsetBits__C
008210b8   ti_sdo_ipc_SharedRegion_offsetMask__C
008210bc   ti_sdo_ipc_family_c647x_Interrupt_INTERDSPINT__C
008210c0   ti_sdo_ipc_family_c647x_Interrupt_IPCAR0__C
008210c4   ti_sdo_ipc_family_c647x_Interrupt_IPCGR0__C
008210c8   ti_sdo_ipc_family_c647x_Interrupt_KICK0__C
008210cc   ti_sdo_ipc_family_c647x_Interrupt_KICK1__C
008210d0   ti_sdo_ipc_family_c647x_MultiProcSetup_A_invalidProcessor__C
008210d4   ti_sdo_ipc_family_c647x_MultiProcSetup_Module__diagsEnabled__C
008210d8   ti_sdo_ipc_family_c647x_MultiProcSetup_Module__diagsIncluded__C
008210dc   ti_sdo_ipc_family_c647x_MultiProcSetup_Module__diagsMask__C
008210e0   ti_sdo_ipc_family_c647x_MultiProcSetup_procMap__C
008210e4   ti_sdo_ipc_family_c647x_NotifyCircSetup_dspIntVectId__C
008210e8   ti_sdo_ipc_gates_GateHWSem_A_invSemNum__C
008210ec   ti_sdo_ipc_gates_GateHWSem_Module__diagsEnabled__C
008210f0   ti_sdo_ipc_gates_GateHWSem_Module__diagsIncluded__C
008210f4   ti_sdo_ipc_gates_GateHWSem_Module__diagsMask__C
008210f8   ti_sdo_ipc_gates_GateHWSem_baseAddr__C
008210fc   ti_sdo_ipc_gates_GateHWSem_numSems__C
00821100   ti_sdo_ipc_gates_GateHWSem_reservedMaskArr__A
00821104   ti_sdo_ipc_gates_GateHWSem_reservedMaskArr__C
00821108   ti_sdo_ipc_gates_GateMPSupportNull_A_invalidAction__C
0082110c   ti_sdo_ipc_gates_GateMPSupportNull_Module__diagsEnabled__C
00821110   ti_sdo_ipc_gates_GateMPSupportNull_Module__diagsIncluded__C
00821114   ti_sdo_ipc_gates_GateMPSupportNull_Module__diagsMask__C
00821118   ti_sdo_ipc_gates_GateMPSupportNull_action__C
0082111c   ti_sdo_ipc_gates_GatePeterson_E_gateRemotelyOpened__C
00821120   ti_sdo_ipc_gates_GatePeterson_Module__diagsEnabled__C
00821124   ti_sdo_ipc_gates_GatePeterson_Module__diagsIncluded__C
00821128   ti_sdo_ipc_gates_GatePeterson_Module__diagsMask__C
0082112c   ti_sdo_ipc_gates_GatePeterson_numInstances__C
00821130   ti_sdo_ipc_heaps_HeapBufMP_A_badAlignment__C
00821134   ti_sdo_ipc_heaps_HeapBufMP_A_invBlockFreed__C
00821138   ti_sdo_ipc_heaps_HeapBufMP_E_alignTooLarge__C
0082113c   ti_sdo_ipc_heaps_HeapBufMP_E_exactFail__C
00821140   ti_sdo_ipc_heaps_HeapBufMP_E_noBlocksLeft__C
00821144   ti_sdo_ipc_heaps_HeapBufMP_E_sizeTooLarge__C
00821148   ti_sdo_ipc_heaps_HeapBufMP_Module__diagsEnabled__C
0082114c   ti_sdo_ipc_heaps_HeapBufMP_Module__diagsIncluded__C
00821150   ti_sdo_ipc_heaps_HeapBufMP_Module__diagsMask__C
00821154   ti_sdo_ipc_heaps_HeapMemMP_A_align__C
00821158   ti_sdo_ipc_heaps_HeapMemMP_A_heapSize__C
0082115c   ti_sdo_ipc_heaps_HeapMemMP_A_invalidFree__C
00821160   ti_sdo_ipc_heaps_HeapMemMP_A_zeroBlock__C
00821164   ti_sdo_ipc_heaps_HeapMemMP_E_memory__C
00821168   ti_sdo_ipc_heaps_HeapMemMP_Module__diagsEnabled__C
0082116c   ti_sdo_ipc_heaps_HeapMemMP_Module__diagsIncluded__C
00821170   ti_sdo_ipc_heaps_HeapMemMP_Module__diagsMask__C
00821174   ti_sdo_ipc_interfaces_IGateMPSupport_Interface__BASE__C
00821178   ti_sdo_ipc_interfaces_IMessageQTransport_Interface__BASE__C
0082117c   ti_sdo_ipc_interfaces_INotifyDriver_Interface__BASE__C
00821180   ti_sdo_ipc_notifyDrivers_NotifyDriverCirc_A_notSupported__C
00821184   ti_sdo_ipc_notifyDrivers_NotifyDriverCirc_Module__diagsEnabled__C
00821188   ti_sdo_ipc_notifyDrivers_NotifyDriverCirc_Module__diagsIncluded__C
0082118c   ti_sdo_ipc_notifyDrivers_NotifyDriverCirc_Module__diagsMask__C
00821190   ti_sdo_ipc_notifyDrivers_NotifyDriverCirc_maxIndex__C
00821194   ti_sdo_ipc_notifyDrivers_NotifyDriverCirc_modIndex__C
00821198   ti_sdo_ipc_notifyDrivers_NotifyDriverCirc_numMsgs__C
0082119c   ti_sdo_ipc_nsremote_NameServerRemoteNotify_A_invalidValueLen__C
008211a0   ti_sdo_ipc_nsremote_NameServerRemoteNotify_Instance_State_semMultiBlock__O
008211a4   ti_sdo_ipc_nsremote_NameServerRemoteNotify_Instance_State_semRemoteWait__O
008211a8   ti_sdo_ipc_nsremote_NameServerRemoteNotify_Instance_State_swiObj__O
008211ac   ti_sdo_ipc_nsremote_NameServerRemoteNotify_Module__diagsEnabled__C
008211b0   ti_sdo_ipc_nsremote_NameServerRemoteNotify_Module__diagsIncluded__C
008211b4   ti_sdo_ipc_nsremote_NameServerRemoteNotify_Module__diagsMask__C
008211b8   ti_sdo_ipc_nsremote_NameServerRemoteNotify_notifyEventId__C
008211bc   ti_sdo_ipc_nsremote_NameServerRemoteNotify_timeout__C
008211c0   ti_sdo_ipc_transports_TransportShmNotifySetup_priority__C
008211c4   ti_sdo_utils_INameServerRemote_Interface__BASE__C
008211c8   ti_sdo_utils_List_Object__count__C
008211cc   ti_sdo_utils_List_Object__table__C
008211d0   ti_sdo_utils_MultiProc_A_invalidMultiProcId__C
008211d4   ti_sdo_utils_MultiProc_A_invalidProcName__C
008211d8   ti_sdo_utils_MultiProc_Module__diagsEnabled__C
008211dc   ti_sdo_utils_MultiProc_Module__diagsIncluded__C
008211e0   ti_sdo_utils_MultiProc_Module__diagsMask__C
008211e4   ti_sdo_utils_MultiProc_nameList__C
008211e8   ti_sdo_utils_MultiProc_procIdList__C
008211ec   ti_sdo_utils_NameServer_A_invArgument__C
008211f0   ti_sdo_utils_NameServer_A_invalidLen__C
008211f4   ti_sdo_utils_NameServer_E_entryExists__C
008211f8   ti_sdo_utils_NameServer_E_maxReached__C
008211fc   ti_sdo_utils_NameServer_Instance_State_freeList__O
00821200   ti_sdo_utils_NameServer_Instance_State_nameList__O
00821204   ti_sdo_utils_NameServer_Module__diagsEnabled__C
00821208   ti_sdo_utils_NameServer_Module__diagsIncluded__C
0082120c   ti_sdo_utils_NameServer_Module__diagsMask__C
00821210   ti_sdo_utils_NameServer_Object__count__C
00821214   ti_sdo_utils_NameServer_Object__table__C
00821218   ti_sysbios_BIOS_Module__diagsEnabled__C
0082121c   ti_sysbios_BIOS_Module__diagsIncluded__C
00821220   ti_sysbios_BIOS_Module__diagsMask__C
00821224   ti_sysbios_BIOS_installedErrorHook__C
00821228   ti_sysbios_family_c62_TaskSupport_stackAlignment__C
0082122c   ti_sysbios_family_c64p_EventCombiner_E_unpluggedEvent__C
00821230   ti_sysbios_family_c64p_Exception_E_exceptionMin__C
00821234   ti_sysbios_family_c64p_Exception_exceptionHook__C
00821238   ti_sysbios_family_c64p_Exception_externalHook__C
0082123c   ti_sysbios_family_c64p_Exception_internalHook__C
00821240   ti_sysbios_family_c64p_Exception_nmiHook__C
00821244   ti_sysbios_family_c64p_Hwi_E_alreadyDefined__C
00821248   ti_sysbios_family_c64p_Hwi_LD_end__C
0082124c   ti_sysbios_family_c64p_Hwi_LM_begin__C
00821250   ti_sysbios_family_c64p_Hwi_Module__diagsEnabled__C
00821254   ti_sysbios_family_c64p_Hwi_Module__diagsIncluded__C
00821258   ti_sysbios_family_c64p_Hwi_Module__diagsMask__C
0082125c   ti_sysbios_family_c64p_Hwi_Module__loggerFxn1__C
00821260   ti_sysbios_family_c64p_Hwi_Module__loggerFxn8__C
00821264   ti_sysbios_family_c64p_Hwi_Module__loggerObj__C
00821268   ti_sysbios_family_c66_Cache_atomicBlockSize__C
0082126c   ti_sysbios_family_c66_tci66xx_CpIntc_E_unpluggedSysInt__C
00821270   ti_sysbios_family_c66_tci66xx_CpIntc_hostIntToEventId__C
00821274   ti_sysbios_family_c66_tci66xx_CpIntc_numStatusRegs__C
00821278   ti_sysbios_family_c66_tci66xx_CpIntc_numSysInts__C
0082127c   ti_sysbios_family_c66_tci66xx_CpIntc_sysIntToHostInt__C
00821280   ti_sysbios_gates_GateMutexPri_A_badContext__C
00821284   ti_sysbios_gates_GateMutexPri_Instance_State_pendQ__O
00821288   ti_sysbios_gates_GateMutexPri_Module__diagsEnabled__C
0082128c   ti_sysbios_gates_GateMutexPri_Module__diagsIncluded__C
00821290   ti_sysbios_gates_GateMutexPri_Module__diagsMask__C
00821294   ti_sysbios_gates_GateMutex_A_badContext__C
00821298   ti_sysbios_gates_GateMutex_Instance_State_sem__O
0082129c   ti_sysbios_gates_GateMutex_Module__diagsEnabled__C
008212a0   ti_sysbios_gates_GateMutex_Module__diagsIncluded__C
008212a4   ti_sysbios_gates_GateMutex_Module__diagsMask__C
008212a8   ti_sysbios_gates_GateSwi_A_badContext__C
008212ac   ti_sysbios_gates_GateSwi_Module__diagsEnabled__C
008212b0   ti_sysbios_gates_GateSwi_Module__diagsIncluded__C
008212b4   ti_sysbios_gates_GateSwi_Module__diagsMask__C
008212b8   ti_sysbios_hal_Hwi_E_stackOverflow__C
008212bc   ti_sysbios_heaps_HeapMem_A_align__C
008212c0   ti_sysbios_heaps_HeapMem_A_heapSize__C
008212c4   ti_sysbios_heaps_HeapMem_A_invalidFree__C
008212c8   ti_sysbios_heaps_HeapMem_A_zeroBlock__C
008212cc   ti_sysbios_heaps_HeapMem_E_memory__C
008212d0   ti_sysbios_heaps_HeapMem_Module__diagsEnabled__C
008212d4   ti_sysbios_heaps_HeapMem_Module__diagsIncluded__C
008212d8   ti_sysbios_heaps_HeapMem_Module__diagsMask__C
008212dc   ti_sysbios_heaps_HeapMem_Module__gateObj__C
008212e0   ti_sysbios_heaps_HeapMem_Object__count__C
008212e4   ti_sysbios_heaps_HeapMem_Object__table__C
008212e8   ti_sysbios_heaps_HeapMem_reqAlignMask__C
008212ec   ti_sysbios_heaps_HeapMem_reqAlign__C
008212f0   ti_sysbios_knl_Clock_A_badThreadType__C
008212f4   ti_sysbios_knl_Clock_LM_begin__C
008212f8   ti_sysbios_knl_Clock_LM_tick__C
008212fc   ti_sysbios_knl_Clock_LW_delayed__C
00821300   ti_sysbios_knl_Clock_Module_State_clockQ__O
00821304   ti_sysbios_knl_Clock_Module__diagsEnabled__C
00821308   ti_sysbios_knl_Clock_Module__diagsIncluded__C
0082130c   ti_sysbios_knl_Clock_Module__diagsMask__C
00821310   ti_sysbios_knl_Clock_Module__loggerFxn1__C
00821314   ti_sysbios_knl_Clock_Module__loggerFxn2__C
00821318   ti_sysbios_knl_Clock_Module__loggerObj__C
0082131c   ti_sysbios_knl_Clock_tickMode__C
00821320   ti_sysbios_knl_Clock_tickPeriod__C
00821324   ti_sysbios_knl_Clock_tickSource__C
00821328   ti_sysbios_knl_Queue_Object__count__C
0082132c   ti_sysbios_knl_Queue_Object__table__C
00821330   ti_sysbios_knl_Idle_funcList__A
00821334   ti_sysbios_knl_Semaphore_A_badContext__C
00821338   ti_sysbios_knl_Semaphore_A_noEvents__C
0082133c   ti_sysbios_knl_Semaphore_Instance_State_pendQ__O
00821340   ti_sysbios_knl_Semaphore_LM_pend__C
00821344   ti_sysbios_knl_Semaphore_LM_post__C
00821348   ti_sysbios_knl_Semaphore_Module__diagsEnabled__C
0082134c   ti_sysbios_knl_Semaphore_Module__diagsIncluded__C
00821350   ti_sysbios_knl_Semaphore_Module__diagsMask__C
00821354   ti_sysbios_knl_Semaphore_Module__loggerFxn2__C
00821358   ti_sysbios_knl_Semaphore_Module__loggerFxn4__C
0082135c   ti_sysbios_knl_Semaphore_Module__loggerObj__C
00821360   ti_sysbios_knl_Swi_A_badPriority__C
00821364   ti_sysbios_knl_Swi_LD_end__C
00821368   ti_sysbios_knl_Swi_LM_begin__C
0082136c   ti_sysbios_knl_Swi_LM_post__C
00821370   ti_sysbios_knl_Swi_Module__diagsEnabled__C
00821374   ti_sysbios_knl_Swi_Module__diagsIncluded__C
00821378   ti_sysbios_knl_Swi_Module__diagsMask__C
0082137c   ti_sysbios_knl_Swi_Module__loggerFxn1__C
00821380   ti_sysbios_knl_Swi_Module__loggerFxn4__C
00821384   ti_sysbios_knl_Swi_Module__loggerObj__C
00821388   ti_sysbios_knl_Swi_Object__count__C
0082138c   ti_sysbios_knl_Swi_Object__table__C
00821390   ti_sysbios_knl_Task_A_badPriority__C
00821394   ti_sysbios_knl_Task_A_badTaskState__C
00821398   ti_sysbios_knl_Task_A_badThreadType__C
0082139c   ti_sysbios_knl_Task_A_noPendElem__C
008213a0   ti_sysbios_knl_Task_E_spOutOfBounds__C
008213a4   ti_sysbios_knl_Task_E_stackOverflow__C
008213a8   ti_sysbios_knl_Task_LD_block__C
008213ac   ti_sysbios_knl_Task_LD_exit__C
008213b0   ti_sysbios_knl_Task_LD_ready__C
008213b4   ti_sysbios_knl_Task_LM_setPri__C
008213b8   ti_sysbios_knl_Task_LM_switch__C
008213bc   ti_sysbios_knl_Task_LM_yield__C
008213c0   ti_sysbios_knl_Task_Module_State_inactiveQ__O
008213c4   ti_sysbios_knl_Task_Module_State_terminatedQ__O
008213c8   ti_sysbios_knl_Task_Module__diagsEnabled__C
008213cc   ti_sysbios_knl_Task_Module__diagsIncluded__C
008213d0   ti_sysbios_knl_Task_Module__diagsMask__C
008213d4   ti_sysbios_knl_Task_Module__loggerFxn2__C
008213d8   ti_sysbios_knl_Task_Module__loggerFxn4__C
008213dc   ti_sysbios_knl_Task_Module__loggerObj__C
008213e0   ti_sysbios_knl_Task_Object__count__C
008213e4   ti_sysbios_knl_Task_Object__heap__C
008213e8   ti_sysbios_knl_Task_Object__table__C
008213ec   ti_sysbios_knl_Task_allBlockedFunc__C
008213f0   ti_sysbios_knl_Task_defaultStackHeap__C
008213f4   ti_sysbios_knl_Task_defaultStackSize__C
008213f8   ti_sysbios_knl_Task_numConstructedTasks__C
008213fc   ti_sysbios_knl_Task_numPriorities__C
00821400   ti_sysbios_syncs_SyncSem_Module__diagsEnabled__C
00821404   ti_sysbios_syncs_SyncSem_Module__diagsIncluded__C
00821408   ti_sysbios_syncs_SyncSem_Module__diagsMask__C
0082140c   ti_sysbios_timers_timer64_Timer_A_notAvailable__C
00821410   ti_sysbios_timers_timer64_Timer_E_cannotSupport__C
00821414   ti_sysbios_timers_timer64_Timer_Module__diagsEnabled__C
00821418   ti_sysbios_timers_timer64_Timer_Module__diagsIncluded__C
0082141c   ti_sysbios_timers_timer64_Timer_Module__diagsMask__C
00821420   ti_sysbios_timers_timer64_Timer_anyMask__C
00821424   ti_sysbios_timers_timer64_Timer_freqDivisor__C
00821428   ti_sysbios_timers_timer64_Timer_numLocalTimers__C
0082142c   ti_sysbios_timers_timer64_Timer_numTimerDevices__C
00821430   ti_sysbios_xdcruntime_GateThreadSupport_Instance_State_gate__O
00821434   xdc_runtime_Assert_E_assertFailed__C
00821438   xdc_runtime_Core_A_initializedParams__C
0082143c   xdc_runtime_Core_Module__diagsEnabled__C
00821440   xdc_runtime_Core_Module__diagsIncluded__C
00821444   xdc_runtime_Core_Module__diagsMask__C
00821448   xdc_runtime_Error_E_generic__C
0082144c   xdc_runtime_Error_E_memory__C
00821450   xdc_runtime_Error_Module__diagsEnabled__C
00821454   xdc_runtime_Error_Module__diagsIncluded__C
00821458   xdc_runtime_Error_Module__diagsMask__C
0082145c   xdc_runtime_Error_Module__loggerFxn8__C
00821460   xdc_runtime_Error_Module__loggerObj__C
00821464   xdc_runtime_Error_policy__C
00821468   xdc_runtime_Error_raiseHook__C
0082146c   xdc_runtime_IGateProvider_Interface__BASE__C
00821470   xdc_runtime_IHeap_Interface__BASE__C
00821474   xdc_runtime_IModule_Interface__BASE__C
00821478   xdc_runtime_Log_L_error__C
0082147c   xdc_runtime_Memory_defaultHeapInstance__C
00821480   xdc_runtime_Startup_execImpl__C
00821484   xdc_runtime_Startup_maxPasses__C
00821488   xdc_runtime_Startup_sfxnRts__C
0082148c   xdc_runtime_Startup_sfxnTab__C
00821490   xdc_runtime_Startup_lastFxns__A
00821494   xdc_runtime_Startup_startModsFxn__C
00821498   xdc_runtime_System_Module__gateObj__C
0082149c   xdc_runtime_System_extendFxn__C
008214a0   xdc_runtime_System_maxAtexitHandlers__C
008214a4   xdc_runtime_Text_charTab__C
008214a8   xdc_runtime_Text_nameEmpty__C
008214ac   xdc_runtime_Text_nameStatic__C
008214b0   xdc_runtime_Text_nameUnknown__C
008214b4   xdc_runtime_Text_nodeTab__C
008214b8   xdc_runtime_Text_visitRopeFxn__C
008214bc   xdc_runtime_knl_ISync_Interface__BASE__C
008214c0   ti_sdo_ipc_GateMP_Module__id__C
008214c4   ti_sdo_ipc_GateMP_Module__loggerDefined__C
008214c8   ti_sdo_ipc_Ipc_Module__id__C
008214cc   ti_sdo_ipc_Ipc_generateSlaveDataForHost__C
008214d0   ti_sdo_ipc_ListMP_Module__id__C
008214d4   ti_sdo_ipc_MessageQ_Module__id__C
008214d8   ti_sdo_ipc_MessageQ_Module__loggerDefined__C
008214dc   ti_sdo_ipc_Notify_Module__id__C
008214e0   ti_sdo_ipc_Notify_numLines__C
008214e4   ti_sdo_ipc_Notify_reservedEvents__C
008214e8   ti_sdo_ipc_SharedRegion_Module__id__C
008214ec   ti_sdo_ipc_SharedRegion_numEntries__C
008214f0   ti_sdo_ipc_SharedRegion_translate__C
008214f4   ti_sdo_ipc_family_c647x_Interrupt_enableKick__C
008214f8   ti_sdo_ipc_family_c647x_MultiProcSetup_Module__id__C
008214fc   ti_sdo_ipc_gates_GateHWSem_Module__id__C
00821500   ti_sdo_ipc_gates_GateMPSupportNull_Module__id__C
00821504   ti_sdo_ipc_gates_GatePeterson_Module__id__C
00821508   ti_sdo_ipc_heaps_HeapBufMP_Module__id__C
0082150c   ti_sdo_ipc_heaps_HeapBufMP_trackAllocs__C
00821510   ti_sdo_ipc_heaps_HeapMemMP_Module__id__C
00821514   ti_sdo_ipc_notifyDrivers_NotifyDriverCirc_Module__id__C
00821518   ti_sdo_ipc_notifyDrivers_NotifyDriverCirc_enableStats__C
0082151c   ti_sdo_ipc_nsremote_NameServerRemoteNotify_Module__id__C
00821520   ti_sdo_ipc_transports_TransportShmNotify_alwaysWriteBackMsg__C
00821524   ti_sdo_ipc_transports_TransportShmNotify_notifyEventId__C
00821528   ti_sdo_utils_MultiProc_Module__id__C
0082152c   ti_sdo_utils_MultiProc_numProcessors__C
00821530   ti_sdo_utils_MultiProc_numProcsInCluster__C
00821534   ti_sdo_utils_NameServer_Module__id__C
00821538   ti_sdo_utils_NameServer_singleProcessor__C
0082153c   ti_sysbios_BIOS_Module__id__C
00821540   ti_sysbios_family_c64p_EventCombiner_Module__id__C
00821544   ti_sysbios_family_c64p_Exception_Module__id__C
00821548   ti_sysbios_family_c64p_Hwi_Module__id__C
0082154c   ti_sysbios_family_c64p_Hwi_Module__loggerDefined__C
00821550   ti_sysbios_family_c66_tci66xx_CpIntc_Module__id__C
00821554   ti_sysbios_gates_GateMutexPri_Module__id__C
00821558   ti_sysbios_gates_GateMutex_Module__id__C
0082155c   ti_sysbios_gates_GateSwi_Module__id__C
00821560   ti_sysbios_hal_Hwi_Module__id__C
00821564   ti_sysbios_heaps_HeapMem_Module__id__C
00821568   ti_sysbios_knl_Clock_Module__id__C
0082156c   ti_sysbios_knl_Clock_Module__loggerDefined__C
00821570   ti_sysbios_knl_Semaphore_Module__id__C
00821574   ti_sysbios_knl_Semaphore_Module__loggerDefined__C
00821578   ti_sysbios_knl_Swi_Module__id__C
0082157c   ti_sysbios_knl_Swi_Module__loggerDefined__C
00821580   ti_sysbios_knl_Task_Module__id__C
00821584   ti_sysbios_knl_Task_Module__loggerDefined__C
00821588   ti_sysbios_knl_Task_deleteTerminatedTasks__C
0082158c   ti_sysbios_knl_Task_initStackFlag__C
00821590   ti_sysbios_syncs_SyncSem_Module__id__C
00821594   ti_sysbios_timers_timer64_Timer_Module__id__C
00821598   ti_sysbios_timers_timer64_Timer_startupNeeded__C
0082159c   xdc_runtime_Core_Module__id__C
008215a0   xdc_runtime_Error_Module__loggerDefined__C
008215a4   xdc_runtime_Error_maxDepth__C
008215a8   xdc_runtime_Main_Module__id__C
008215ac   xdc_runtime_Memory_Module__id__C
008215b0   xdc_runtime_Text_charCnt__C
008215b4   xdc_runtime_Text_isLoaded__C
008215b8   xdc_runtime_Text_registryModsLastId__C
008215bc   xdc_runtime_Text_unnamedModsLastId__C
008215c0   _stack
008225c0   __CIOBUF_
008225c0   __TI_STACK_END
008227b0   __TI_STATIC_BASE
008227b0   dsp_num
008227b4   region_id
008227b8   pSTMHandle
008227bc   Ipc_sr0MemorySetup
008227c0   resMgrInstance
008227c4   userInitConfig
008227c8   ptrRMIArray
008227cc   ptrInitCfgArray
008227d0   hwiInterrupt
008227e0   edma3NumPaRAMSets
008227ec   STMXport_ByteCnt
008227f4   numEdma3Instances
008227f8   EDMA3_MAX_RM_INSTANCES
00824f64   __TI_Handler_Table_Base
00824f70   __TI_Handler_Table_Limit
00825000   __TI_CINIT_Base
008250c0   __TI_CINIT_Limit
00826000   workBuf0Internal
00836000   fftInBuf
00838000   fftOutBuf
0083a000   vlfft_w1
0083c000   vlfft_w2
0083e000   vlfft_twiddle
00840000   inBuf
00860000   outBuf
80200000   inData
80a00000   outData
81200000   workBufExternal
81a00000   testData
82200000   STMExport_putMeta
822000b0   STMXport_putWord
822001d4   STMXport_putShort
822002f8   STMXport_putByte
82200420   STMXport_logMsg
82200690   STMXport_logMsg0
822007b4   STMXport_logMsg1
822008d8   STMXport_logMsg2
82200a10   STMXport_getBufInfo
82200ae0   STMXport_flush
82200be8   STM_putBufCPU
82200f2c   STM_putMsgCPU
82201198   STM_putDMA
82201360   DMA_checkStatus
8220148c   DMA_serviceNextMsg
82201564   DMA_postMsg
82201904   Build_OST_Header
82201978   Compose_OST_MSG
822019c4   AddressAlignmentChecker
82201a18   STMExport_IntMsg
82201b40   genTestData2
82202390   genTestData
82202cf0   genFFTTestData
82202d80   ti_sdo_ipc_GateMP_Instance_init__F
82203fa0   STMXport_getVersion
82203fec   STMXport_printfV
82204010   STM_printfV
82204aec   STMXport_putMessage
82204d40   EDMA3_DRV_requestChannel
82205980   EDMA3_RM_allocResource
822064c0   vlfft_system_reset
822064cc   vlfft_slave
82206804   vlfft_master
82206c0c   setMyId
82206c40   clearRegisters
82206c8c   main
82206f40   ti_sdo_ipc_heaps_HeapMemMP_alloc__E
822079a0   ti_sdo_ipc_heaps_HeapMemMP_free__E
82208380   Ipc_attach
82208d20   xdc_runtime_System_doPrint__I
822096c0   ti_sdo_ipc_ListMP_Instance_init__F
82209f40   ti_sdo_ipc_GateMP_Instance_finalize__F
8220a7a0   VLFFT_1stIter
8220b000   MessageQ_put
8220b840   ti_sdo_ipc_heaps_HeapBufMP_Instance_init__F
8220c060   ti_sdo_ipc_heaps_HeapBufMP_postInit__I
8220c860   ti_sdo_ipc_heaps_HeapMemMP_Instance_init__F
8220cfe0   ti_sysbios_family_c64p_Exception_handler__I
8220d760   vlfftEdmaConfig_srcAddrdstAddr_aCntbCntcCnt_1
8220d7e8   vlfftEdmaConfig_srcAddrdstAddr_aCntbCntcCnt
8220d80c   vlfftEdmaConfig_srcAddrdstAddr_1
8220d858   vlfftEdmaConfig_srcAddrdstAddr
8220d86c   vlfftEdmaConfig_2ndIter
8220db54   vlfftEdmaConfig_1stIter
8220de28   edmaTrigger
8220de60   edmaPoll
8220dea0   STMXport_open
8220e080   STMXport_printf
8220e0c0   STMXport_putMsg
8220e178   STMXport_putBuf
8220e500   STMXport_close
8220ec20   ti_sdo_ipc_nsremote_NameServerRemoteNotify_Instance_init__F
8220f2e0   NameServer_add
8220f980   ti_sysbios_heaps_HeapMem_free__E
8220ffe0   Notify_sendEvent
82210600   ti_sysbios_heaps_HeapMem_alloc__E
82210c20   EDMA3_RM_open
82211220   Notify_registerEventSingle
82211800   ListMP_getHead
82211dc0   Notify_unregisterEventSingle
82212380   __c6xabi_divd
82212f00   ti_sdo_ipc_SharedRegion_start__F
822134c0   VLFFT_2ndIter
82213a80   ti_sysbios_timers_timer64_Timer_Module_startup__F
82214020   ti_sdo_ipc_nsremote_NameServerRemoteNotify_get__F
822145a0   NameServer_get
82214b00   initMessageQueues
82214da0   getAllMessages
82214e70   broadcastMessagesToAllCores
82214f00   broadcastMessagesToActiveCores
82214fa0   broadcastMessages
82215040   ti_sdo_ipc_Ipc_procSyncStart__I
82215580   ti_sysbios_knl_Task_Instance_finalize__F
82215a80   DSPF_sp_mixedRadix_fftSPxSP
82215f60   DMAparamInit
82216440   ti_sdo_ipc_notifyDrivers_NotifyDriverCirc_Instance_init__F
82216920   HeapBufMP_sharedMemReq
82216dc0   ti_sdo_ipc_gates_GatePeterson_Instance_init__F
82217260   ti_sdo_ipc_nsremote_NameServerRemoteNotify_swiFxn__I
82217b80   ti_sysbios_knl_Task_Module_startup__F
82218000   _printfi
82218460   ti_sdo_ipc_GateMP_setRegion0Reserved__F
822188c0   ti_sdo_ipc_Ipc_procSyncFinish__I
82218d20   ti_sdo_ipc_MessageQ_Instance_init__F
82219180   ListMP_putTail
82219a00   ti_sdo_ipc_heaps_HeapMemMP_getStats__E
82219e40   ti_sdo_ipc_heaps_HeapMemMP_postInit__I
8221a280   EDMA3_RM_freeResource
8221a6a0   ti_sdo_ipc_Notify_Instance_init__F
8221aaa0   ti_sysbios_knl_Semaphore_pend__E
8221aea0   ti_sdo_ipc_SharedRegion_reserveMemory__F
8221b260   ti_sysbios_knl_Swi_schedule__I
8221b620   ti_sysbios_knl_Task_Instance_init__F
8221b9e0   ti_sysbios_knl_Task_setPri__E
8221bda0   EDMA3_RM_create
8221c140   HeapMemMP_sharedMemReq
8221c4c0   MessageQ_alloc
8221c840   xdc_runtime_System_printfExtend__I
8221cba0   GateMP_sharedMemReq
8221cee0   ti_sysbios_knl_Swi_restoreHwi__E
8221d220   DSPF_sp_radix4_fftSPxSP
8221d540   HeapBufMP_open
8221d860   EDMA3_DRV_freeChannel
8221db60   fputs
8221de60   ti_sysbios_family_c64p_Hwi_dispatchC__I
8221e160   transpose_2
8221e1cc   transpose_1
8221e234   copy_float
8221e2a8   compare_float
8221e460   GateMP_openByAddr
8221e740   SharedRegion_getEntry
8221ea20   SharedRegion_getPtr
8221efe0   ti_sdo_ipc_heaps_HeapBufMP_free__E
8221f2c0   ti_sdo_ipc_notifyDrivers_NotifyDriverCirc_isr__I
8221f5a0   ti_sysbios_gates_GateMutexPri_enter__E
8221f880   MessageQ_open
8221fe00   cos
822200c0   EDMA3_DRV_create
82220360   EDMA3_DRV_disableTransfer
82220600   EDMA3_DRV_open
822208a0   Ipc_start
82220b40   NameServer_getLocal
82221860   ti_sdo_ipc_heaps_HeapBufMP_Instance_finalize__F
82221b00   ti_sysbios_family_c66_tci66xx_CpIntc_Module_startup__F
82221da0   ti_sysbios_knl_Clock_workFunc__E
82222040   SharedRegion_getSRPtr
822227c0   multTwiddle_vec_1
822228c0   multTwiddle_vec
8222294c   genTwiddle
82222a40   sin
82222cc0   ti_sdo_ipc_notifyDrivers_NotifyDriverCirc_sharedMemReq__F
82222f40   ti_sysbios_knl_Clock_Instance_init__F
822231c0   ti_sysbios_knl_Task_exit__E
82223440   xdc_runtime_Core_createObject__I
822236c0   xdc_runtime_Error_raiseX__F
82223940   EDMA3_DRV_enableTransfer
82223ba0   ListMP_sharedMemReq
82223e00   registerEdma3Interrupts
82224060   ti_sdo_ipc_ListMP_Instance_finalize__F
822242c0   ti_sdo_ipc_heaps_HeapMemMP_Instance_finalize__F
82224520   xdc_runtime_Startup_startMods__I
82224780   EDMA3_DRV_setDestParams
822249c0   EDMA3_DRV_setSrcParams
82224c00   __c6xabi_divull
822252c0   ti_sdo_ipc_MessageQ_Instance_finalize__F
82225500   ti_sdo_ipc_notifyDrivers_NotifyDriverCirc_sendEvent__E
82225740   ti_sysbios_family_c64p_Exception_internalHandler__I
82225980   MessageQ_get
82225ba0   MultiProc_getId
82225fe0   ti_sysbios_knl_Task_schedule__I
82226200   ti_sysbios_knl_Task_startup__E
82226420   GateMP_enter
82226620   GateMP_leave
82226820   ListMP_openByAddr
82226c20   ti_sysbios_family_c64p_Hwi_dispatchAlways
82227220   tw_gen
82227420   ti_sdo_ipc_family_c647x_MultiProcSetup_init__I
82227620   ti_sdo_ipc_heaps_HeapBufMP_alloc__E
82227820   edma3init
82227a00   ti_sdo_ipc_GateMP_attach__F
82227be0   ti_sdo_ipc_GateMP_getFreeResource__I
82227dc0   ti_sysbios_knl_Task_postInit__I
82227fa0   ti_sysbios_timers_timer64_Timer_getFreq__E
82228180   HeapBufMP_openByAddr
82228340   HeapMemMP_openByAddr
822286c0   ti_sysbios_family_c64p_Hwi_reconfig__E
82228880   ti_sysbios_knl_Swi_Instance_init__F
82228a40   ti_sysbios_knl_Task_checkStacks__E
82228c00   ti_sysbios_timers_timer64_Timer_setPeriodMicroSecs__E
82228dc0   HOSTrename
82228f60   SharedRegion_getCacheLineSize
82229100   SharedRegion_getHeap
822292a0   SharedRegion_isCacheEnabled
82229440   __c6xabi_divul
822295e0   dft
82229780   ti_sdo_ipc_GateMP_openRegion0Reserved__F
82229920   ti_sdo_ipc_nsremote_NameServerRemoteNotify_attach__E
82229ac0   ti_sdo_ipc_transports_TransportShmNotify_put__E
82229c60   ti_sysbios_family_c66_tci66xx_CpIntc_dispatch__F
82229e00   ti_sysbios_gates_GateMutex_enter__E
82229fa0   ti_sysbios_timers_timer64_Timer_start__E
8222a140   EDMA3_RM_registerTccCb
8222a2c0   MultiProc_setLocalId
8222a440   Notify_intLineRegistered
8222a8c0   setvbuf
8222aa40   ti_sysbios_family_c64p_Exception_dispatch__E
8222abc0   ti_sdo_ipc_MessageQ_registerTransport__F
8222ad40   ti_sdo_ipc_Notify_Module_startup__F
8222aec0   ti_sdo_ipc_gates_GatePeterson_enter__E
8222b040   ti_sdo_utils_NameServer_Module_startup__F
8222b1c0   ti_sysbios_heaps_HeapMem_Instance_init__F
8222b340   ti_sysbios_knl_Semaphore_post__E
8222b4c0   ti_sysbios_knl_Task_unblockI__E
8222b640   xdc_runtime_Text_putSite__F
8222b7c0   EDMA3_DRV_setTransferParams
8222b920   ti_sdo_ipc_GateMP_createLocal__F
8222ba80   ti_sdo_ipc_MessageQ_unregisterTransport__F
8222bbe0   ti_sdo_ipc_gates_GateHWSem_Instance_init__F
8222bd40   ti_sdo_utils_NameServer_isRegistered__E
8222bea0   ti_sdo_utils_NameServer_registerRemoteDriver__E
8222c000   ti_sdo_utils_NameServer_unregisterRemoteDriver__E
8222c160   ti_sysbios_syncs_SyncSem_Instance_init__F
8222c2c0   EDMA3_DRV_setPaRAM
8222c400   EDMA3_DRV_waitAndClearTcc
8222c540   EDMA3_RM_unregisterTccCb
8222c680   GateMP_close
8222c7c0   MessageQ_registerHeap
8222c900   Notify_attach
8222ca40   _auto_init_elf
8222ccc0   fputc
8222cf40   multTwiddle_vec_1_sa
8222d080   ti_sdo_ipc_Notify_exec__F
8222d1c0   ti_sysbios_family_c64p_Hwi_Module_startup__F
8222d300   ti_sysbios_family_c66_Cache_Module_startup__F
8222d440   ti_sysbios_gates_GateSwi_enter__E
8222d580   ti_sysbios_knl_Clock_Instance_finalize__F
8222d6c0   ti_sysbios_knl_Semaphore_Instance_init__F
8222d800   ti_sysbios_knl_Swi_post__E
8222d940   ti_sysbios_knl_Task_blockI__E
8222da80   ti_sysbios_knl_Task_yield__E
8222dbc0   __c6xabi_divlli
8222de00   _wrt_ok
8222df20   fclose
8222e160   ti_sdo_ipc_MessageQ_Module_startup__F
8222e280   ti_sdo_ipc_family_c647x_Interrupt_intRegister__E
8222e3a0   ti_sdo_ipc_nsremote_NameServerRemoteNotify_Instance_finalize__F
8222e4c0   ti_sysbios_xdcruntime_GateThreadSupport_leave__F
8222e5e0   vlfftParamsInit
8222e6e0   vlfftBuffersInit
8222e700   xdc_runtime_Text_putLab__F
8222e820   HOSTlseek
8222e920   fflush
8222eb20   ti_sdo_ipc_GateMP_start__F
8222ec20   ti_sdo_ipc_Notify_Instance_finalize__F
8222ed20   ti_sdo_ipc_SharedRegion_attach__F
8222ee20   ti_sdo_ipc_SharedRegion_clearReservedMemory__F
8222ef20   ti_sdo_ipc_family_c647x_Interrupt_Module_startup__F
8222f020   ti_sdo_ipc_gates_GateHWSem_Module_startup__F
8222f120   ti_sdo_ipc_gates_GateMPSupportNull_enter__E
8222f220   ti_sdo_ipc_gates_GateMPSupportNull_leave__E
8222f320   ti_sdo_ipc_transports_TransportShmNotify_Instance_init__F
8222f420   ti_sysbios_family_c64p_EventCombiner_dispatch__F
8222f520   ti_sysbios_gates_GateMutexPri_leave__E
8222f620   ti_sysbios_knl_Clock_startI__E
8222f720   xdc_runtime_Core_deleteObject__I
8222f820   xdc_runtime_Startup_exec__F
8222f920   xdc_runtime_Text_putMod__F
8222fa20   xdc_runtime_Text_visitRope2__I
8222fb20   HOSTopen
8222fc00   HeapBufMP_create
8222fce0   __c6xabi_divi
8222fce0   __divi
8222fea0   atoi
8222ff80   close
82230060   __TI_zero_init
82230140   edma3OsProtectEntry
82230220   exit
82230300   ltoa
822303e0   memset
822304c0   ti_sdo_ipc_Notify_Object__create__S
822305a0   ti_sdo_ipc_family_c647x_NotifyCircSetup_attach__E
82230680   ti_sdo_ipc_gates_GateHWSem_enter__E
82230760   ti_sdo_ipc_heaps_HeapBufMP_getStats__F
82230840   ti_sdo_ipc_notifyDrivers_NotifyDriverCirc_disableEvent__E
82230920   ti_sdo_ipc_notifyDrivers_NotifyDriverCirc_enable__E
82230a00   ti_sysbios_family_c64p_Hwi_Object__create__S
82230ae0   ti_sysbios_knl_Clock_start__E
82230bc0   ti_sysbios_timers_timer64_Timer_startup__E
82230ca0   xdc_runtime_Error_print__F
82230d80   xdc_runtime_Memory_alloc__F
82230e60   HOSTread
82230f20   HOSTunlink
82230fe0   HOSTwrite
822310a0   HeapMemMP_create
82231160   ListMP_create
82231220   __cxa_finalize
822312e0   __c6xabi_divu
822312e0   __divu
822313a0   __c6xabi_remi
822313a0   __remi
82231460   _cleanup
82231520   _doflush
822315e0   edma3OsProtectExit
822316a0   fseek
82231760   lseek
82231820   transpose_2Cols_rowsX8_cplxMatrix_sa
822318e0   transpose_2Rows_8XCols_cplxMatrix_sa
822319a0   ti_sdo_ipc_GateMP_Object__create__S
82231a60   ti_sdo_ipc_GateMP_getRegion0ReservedSize__F
82231b20   ti_sdo_ipc_ListMP_Object__create__S
82231be0   ti_sdo_ipc_MessageQ_Object__create__S
82231ca0   ti_sdo_ipc_family_c647x_Interrupt_intShmStub__I
82231d60   ti_sdo_ipc_gates_GatePeterson_Object__create__S
82231e20   ti_sdo_ipc_heaps_HeapBufMP_Object__create__S
82231ee0   ti_sdo_ipc_heaps_HeapMemMP_Object__create__S
82231fa0   ti_sdo_ipc_nsremote_NameServerRemoteNotify_Object__create__S
82232060   ti_sdo_ipc_transports_TransportShmNotifySetup_attach__E
82232120   ti_sdo_ipc_transports_TransportShmNotify_Object__create__S
822321e0   ti_sysbios_BIOS_errorRaiseHook__I
822322a0   ti_sysbios_family_c64p_Hwi_Instance_init__F
82232360   ti_sysbios_gates_GateAll_leave__E
82232420   ti_sysbios_heaps_HeapMem_getStats__E
822324e0   ti_sysbios_knl_Clock_logTick__E
822325a0   ti_sysbios_knl_Idle_loop__E
82232660   ti_sysbios_knl_Swi_Instance_finalize__F
82232720   ti_sysbios_knl_Swi_Object__create__S
822327e0   ti_sysbios_knl_Task_Object__create__S
822328a0   ti_sysbios_syncs_SyncSem_Object__create__S
82232960   ti_sysbios_timers_timer64_Timer_stop__E
82232a20   vlfftEdmaInit
82232ae0   write
82232ba0   xdc_runtime_System_formatNum__I
82232c60   xdc_runtime_knl_GateThread_Object__create__S
82232d20   HOSTclose
82232dc0   MessageQ_create
82232e60   STMLog_exit
82232e68   STMLog_checkFlush
82232e6c   STMLog_SendInfo
82232ed8   STMLog_ErrHandler
82232ee0   STMLog_EnableCIOMode
82232ee4   STMLog_EnableBufMode
82232eec   STMLog_EnableBlkMode
82232ef4   STMLog_CallBack
82232f00   __c6xabi_fltulld
82232fa0   __c6xabi_nround
82233040   __c6xabi_remu
82233040   __remu
822330e0   _c_int00
82233360   ti_sysbios_family_c64p_Hwi_plug__E
822334a0   memcpy
82233540   modf
822335e0   ti_sdo_ipc_family_c647x_Interrupt_intUnregister__E
82233680   ti_sdo_ipc_gates_GatePeterson_leave__E
82233720   ti_sdo_ipc_notifyDrivers_NotifyDriverCirc_Instance_finalize__F
822337c0   ti_sysbios_heaps_HeapMem_init__I
82233860   ti_sysbios_syncs_SyncSem_wait__F
82233900   xdc_runtime_Assert_raise__I
822339a0   HeapBufMP_Params_init
82233aa0   __c6xabi_llshl
82233b20   ti_sysbios_family_c62_TaskSupport_swap__E
82233ba0   edma3MemCpy
82233c20   edma3OsSemCreate
82233ca0   fprintf
82233d20   cTools_memAlloc
82233d20   malloc
82233da0   printf
82233e20   readmsg
82233ea0   initializeSTM
82233ef0   closeSTM
82233ef8   cTools_memUnMap
82233f00   cTools_memMap
82233f20   ti_sdo_ipc_gates_GateHWSem_Object__create__S
82233fa0   ti_sdo_ipc_gates_GateMPSupportNull_Object__create__S
82234020   ti_sdo_ipc_notifyDrivers_NotifyDriverCirc_Object__create__S
822340a0   ti_sdo_ipc_nsremote_NameServerRemoteNotify_detach__E
82234120   ti_sdo_ipc_transports_TransportShmNotify_Instance_finalize__F
822341a0   ti_sdo_utils_List_Object__create__S
82234220   ti_sysbios_family_c62_TaskSupport_start__E
822342a0   ti_sysbios_family_c64p_Exception_Module_startup__F
82234320   ti_sysbios_family_c64p_Hwi_Instance_finalize__F
822343a0   ti_sysbios_family_c64p_Hwi_eventMap__E
82234420   ti_sysbios_family_c66_Cache_invL1pAll__E
822344a0   ti_sysbios_family_c66_tci66xx_CpIntc_mapSysIntToHostInt__F
82234520   ti_sysbios_gates_GateAll_Object__create__S
822345a0   ti_sysbios_gates_GateHwi_Object__create__S
82234620   ti_sysbios_gates_GateMutexPri_Object__create__S
822346a0   ti_sysbios_gates_GateMutex_Object__create__S
82234720   ti_sysbios_gates_GateSwi_Object__create__S
822347a0   ti_sysbios_gates_GateSwi_leave__E
82234820   ti_sysbios_hal_Hwi_checkStack
822348a0   ti_sysbios_heaps_HeapMem_Object__create__S
82234920   ti_sysbios_knl_Clock_Module_startup__F
822349a0   ti_sysbios_knl_Clock_Object__create__S
82234a20   ti_sysbios_knl_Clock_getTicks__E
82234aa0   ti_sysbios_knl_Queue_Object__create__S
82234b20   ti_sysbios_knl_Semaphore_Object__create__S
82234ba0   ti_sysbios_knl_Semaphore_pendTimeout__I
82234c20   ti_sysbios_knl_Swi_startup__E
82234ca0   ti_sysbios_knl_Task_restore__E
82234d20   ti_sysbios_timers_timer64_Timer_getCount__E
82234d20   ti_sysbios_timers_timer64_Timer_getExpiredCounts__E
82234da0   ti_sysbios_timers_timer64_Timer_getPeriod__E
82234e20   ti_sysbios_xdcruntime_GateThreadSupport_Object__create__S
82234ea0   remove
82234ea0   unlink
82234f20   xdc_runtime_Core_assignLabel__I
82234fa0   xdc_runtime_Core_assignParams__I
82235020   xdc_runtime_System_atexit__F
822350a0   xdc_runtime_System_rtsExit__I
82235120   xdc_runtime_Text_printVisFxn__I
822351a0   xdc_runtime_Text_xprintf__I
82235220   GateMP_Params_init
82235280   HeapMemMP_Params_init
822352e0   Compose_Address
82235340   __c6xabi_abort_msg
822353a0   __c6xabi_frcmpyd_div
82235400   __c6xabi_llshru
82235460   _subcull
822354c0   memccpy
82235520   ti_sdo_ipc_GateMP_Object__delete__S
82235580   ti_sdo_ipc_ListMP_Object__delete__S
822355e0   ti_sdo_ipc_MessageQ_Object__get__S
82235640   ti_sdo_ipc_family_c647x_NotifyCircSetup_sharedMemReq__E
822356a0   ti_sdo_ipc_gates_GateHWSem_leave__E
82235700   ti_sdo_ipc_gates_GatePeterson_Instance_finalize__F
82235760   ti_sdo_ipc_gates_GatePeterson_Object__delete__S
822357c0   ti_sdo_ipc_gates_GatePeterson_sharedMemReq__E
82235820   ti_sdo_ipc_heaps_HeapBufMP_Object__delete__S
82235880   ti_sdo_ipc_heaps_HeapMemMP_Object__delete__S
822358e0   ti_sdo_ipc_notifyDrivers_NotifyDriverCirc_Object__delete__S
82235940   ti_sdo_ipc_nsremote_NameServerRemoteNotify_Object__delete__S
822359a0   ti_sdo_ipc_transports_TransportShmNotify_Object__delete__S
82235a00   ti_sdo_ipc_transports_TransportShmNotify_notifyFxn__I
82235a60   ti_sdo_utils_List_Object__get__S
82235ac0   ti_sdo_utils_NameServer_Object__get__S
82235b20   ti_sysbios_BIOS_exitFunc__I
82235b80   ti_sysbios_BIOS_registerRTSLock__I
82235be0   ti_sysbios_family_c64p_EventCombiner_Module_startup__F
82235c40   ti_sysbios_family_c64p_EventCombiner_dispatchPlug__F
82235ca0   ti_sysbios_family_c64p_EventCombiner_unused__F
82235d00   ti_sysbios_family_c64p_Hwi_Object__delete__S
82235d60   ti_sysbios_family_c66_tci66xx_CpIntc_unused__F
82235dc0   ti_sysbios_gates_GateAll_enter__E
82235e20   ti_sysbios_gates_GateMutexPri_Object__delete__S
82235e80   ti_sysbios_gates_GateMutex_Instance_init__F
82235ee0   ti_sysbios_gates_GateMutex_Object__delete__S
82235f40   ti_sysbios_hal_Hwi_initStack
82235fa0   ti_sysbios_heaps_HeapMem_Object__get__S
82236000   ti_sysbios_knl_Clock_doTick__I
82236060   ti_sysbios_knl_Queue_Object__get__S
822360c0   ti_sysbios_knl_Semaphore_Object__delete__S
82236120   ti_sysbios_knl_Swi_Module_startup__F
82236180   ti_sysbios_knl_Swi_Object__get__S
822361e0   ti_sysbios_knl_Task_Object__get__S
82236240   ti_sysbios_knl_Task_allBlockedFunction__I
822362a0   ti_sysbios_knl_Task_enter__I
82236300   ti_sysbios_syncs_SyncSem_Object__delete__S
82236360   ti_sysbios_xdcruntime_GateThreadSupport_Object__delete__S
822363c0   writemsg
82236418   C$$IO$$
82236420   xdc_runtime_GateNull_Object__create__S
82236480   xdc_runtime_Memory_calloc__F
822364e0   xdc_runtime_SysStd_abort__F
82236540   xdc_runtime_System_aprintf_va__F
82236540   xdc_runtime_System_avprintf__F
822365a0   xdc_runtime_System_printf_va__F
822365a0   xdc_runtime_System_vprintf__F
82236600   xdc_runtime_Text_cordText__F
82236660   xdc_runtime_knl_GateThread_Object__delete__S
822366c0   Build_CompactOST_Header
82236700   Build_ExtendedOST_Header
82236740   Edma3_CacheFlush
82236780   __c6xabi_isinf
82236800   _args_main
82236840   ti_sysbios_family_c62_TaskSupport_buildTaskStack
82236880   ti_sysbios_family_xxx_Hwi_switchToIsrStack
822368c0   edma3OsSemGive
82236900   edma3OsSemTake
82236940   cTools_memFree
82236940   free
82236980   llabs
82236a00   strchr
82236a40   strlen
82236a80   ti_sdo_ipc_GateMP_Params__init__S
82236ac0   ti_sdo_ipc_GateMP_RemoteCustom1Proxy_Object__create__S
82236b00   ti_sdo_ipc_GateMP_RemoteCustom2Proxy_Object__create__S
82236b40   ti_sdo_ipc_GateMP_RemoteSystemProxy_Object__create__S
82236b80   ti_sdo_ipc_ListMP_Params__init__S
82236bc0   ti_sdo_ipc_MessageQ_Params__init__S
82236c00   ti_sdo_ipc_MessageQ_registerTransport__E
82236c40   ti_sdo_ipc_family_c647x_Interrupt_intClear__E
82236c80   ti_sdo_ipc_family_c647x_Interrupt_intSend__E
82236cc0   ti_sdo_ipc_gates_GateHWSem_Handle__label__S
82236d00   ti_sdo_ipc_gates_GateHWSem_Object__delete__S
82236d40   ti_sdo_ipc_gates_GateHWSem_Params__init__S
82236d80   ti_sdo_ipc_gates_GateMPSupportNull_Handle__label__S
82236dc0   ti_sdo_ipc_gates_GateMPSupportNull_Object__delete__S
82236e00   ti_sdo_ipc_gates_GateMPSupportNull_Params__init__S
82236e40   ti_sdo_ipc_gates_GatePeterson_Handle__label__S
82236e80   ti_sdo_ipc_gates_GatePeterson_Params__init__S
82236ec0   ti_sdo_ipc_heaps_HeapBufMP_Handle__label__S
82236f00   ti_sdo_ipc_heaps_HeapBufMP_Params__init__S
82236f40   ti_sdo_ipc_heaps_HeapMemMP_Handle__label__S
82236f80   ti_sdo_ipc_heaps_HeapMemMP_Params__init__S
82236fc0   ti_sdo_ipc_notifyDrivers_NotifyDriverCirc_Handle__label__S
82237000   ti_sdo_ipc_notifyDrivers_NotifyDriverCirc_InterruptProxy_intRegister__E
82237040   ti_sdo_ipc_notifyDrivers_NotifyDriverCirc_Params__init__S
82237080   ti_sdo_ipc_notifyDrivers_NotifyDriverCirc_disable__E
822370c0   ti_sdo_ipc_notifyDrivers_NotifyDriverCirc_enableEvent__E
82237100   ti_sdo_ipc_notifyDrivers_NotifyDriverCirc_registerEvent__E
82237140   ti_sdo_ipc_notifyDrivers_NotifyDriverCirc_unregisterEvent__E
82237180   ti_sdo_ipc_nsremote_NameServerRemoteNotify_Handle__label__S
822371c0   ti_sdo_ipc_nsremote_NameServerRemoteNotify_Object__first__S
82237200   ti_sdo_ipc_nsremote_NameServerRemoteNotify_Object__next__S
82237240   ti_sdo_ipc_nsremote_NameServerRemoteNotify_Params__init__S
82237280   ti_sdo_ipc_nsremote_NameServerRemoteNotify_get__E
822372c0   ti_sdo_ipc_nsremote_NameServerRemoteNotify_sharedMemReq__E
82237300   ti_sdo_ipc_transports_TransportShmNotify_Handle__label__S
82237340   ti_sdo_ipc_transports_TransportShmNotify_Params__init__S
82237380   ti_sdo_utils_List_Object__destruct__S
822373c0   ti_sdo_utils_NameServer_Module__startupDone__F
82237400   ti_sdo_utils_NameServer_Object__first__S
82237440   ti_sdo_utils_NameServer_Object__next__S
82237480   ti_sysbios_BIOS_startFunc__I
822374c0   ti_sysbios_BIOS_start__E
82237500   ti_sysbios_family_c64p_EventCombiner_disableEvent__F
82237540   ti_sysbios_family_c64p_EventCombiner_dispatchPlug__E
82237580   ti_sysbios_family_c64p_EventCombiner_enableEvent__F
822375c0   ti_sysbios_family_c64p_Hwi_Module__startupDone__F
82237600   ti_sysbios_family_c64p_Hwi_Params__init__S
82237640   ti_sysbios_family_c64p_Hwi_disableInterrupt__E
82237680   ti_sysbios_family_c64p_Hwi_enableInterrupt__E
822376c0   ti_sysbios_family_c66_Cache_wait__E
82237700   ti_sysbios_family_c66_tci66xx_CpIntc_dispatchPlug__E
82237740   ti_sysbios_family_c66_tci66xx_CpIntc_dispatchPlug__F
82237780   ti_sysbios_family_c66_tci66xx_CpIntc_enableAllHostInts__F
822377c0   ti_sysbios_gates_GateAll_Handle__label__S
82237800   ti_sysbios_gates_GateAll_Object__delete__S
82237840   ti_sysbios_gates_GateHwi_Handle__label__S
82237880   ti_sysbios_gates_GateHwi_Object__delete__S
822378c0   ti_sysbios_gates_GateMutexPri_Handle__label__S
82237900   ti_sysbios_gates_GateMutexPri_Instance_finalize__F
82237940   ti_sysbios_gates_GateMutexPri_Instance_init__F
82237980   ti_sysbios_gates_GateMutexPri_Object__destruct__S
822379c0   ti_sysbios_gates_GateMutex_Handle__label__S
82237a00   ti_sysbios_gates_GateMutex_Instance_finalize__F
82237a40   ti_sysbios_gates_GateMutex_leave__E
82237a80   ti_sysbios_gates_GateSwi_Handle__label__S
82237ac0   ti_sysbios_gates_GateSwi_Object__delete__S
82237b00   ti_sysbios_hal_Cache_CacheProxy_inv__E
82237b00   ti_sysbios_hal_Cache_inv__E
82237b40   ti_sysbios_hal_Cache_CacheProxy_wbInv__E
82237b40   ti_sysbios_hal_Cache_wbInv__E
82237b80   ti_sysbios_hal_Cache_CacheProxy_wb__E
82237b80   ti_sysbios_hal_Cache_wb__E
82237bc0   ti_sysbios_hal_Timer_Module__startupDone__F
82237c00   ti_sysbios_heaps_HeapMem_Handle__label__S
82237c40   ti_sysbios_heaps_HeapMem_Object__delete__S
82237c80   ti_sysbios_knl_Clock_Object__destruct__S
82237cc0   ti_sysbios_knl_Clock_Params__init__S
82237d00   ti_sysbios_knl_Queue_Object__destruct__S
82237d40   ti_sysbios_knl_Semaphore_Instance_finalize__F
82237d80   ti_sysbios_knl_Semaphore_Object__destruct__S
82237dc0   ti_sysbios_knl_Semaphore_Params__init__S
82237e00   ti_sysbios_knl_Swi_Object__destruct__S
82237e40   ti_sysbios_knl_Swi_Params__init__S
82237e80   ti_sysbios_knl_Task_Object__first__S
82237ec0   ti_sysbios_knl_Task_Object__next__S
82237f00   ti_sysbios_knl_Task_Params__init__S
82237f40   ti_sysbios_syncs_SyncSem_Handle__label__S
82237f80   ti_sysbios_syncs_SyncSem_Instance_finalize__F
82237fc0   ti_sysbios_timers_timer64_Timer_Module__startupDone__F
82238000   ti_sysbios_xdcruntime_GateThreadSupport_Instance_finalize__F
82238040   ti_sysbios_xdcruntime_GateThreadSupport_Instance_init__F
82238080   ti_sysbios_xdcruntime_GateThreadSupport_enter__F
822380c0   TSC_enable
822380c8   TSC_read
82238100   xdc_runtime_Error_check__F
82238140   xdc_runtime_Error_init__F
82238180   xdc_runtime_Error_raiseX__E
822381c0   xdc_runtime_GateNull_Handle__label__S
82238200   xdc_runtime_GateNull_Object__delete__S
82238240   xdc_runtime_Gate_leaveSystem__F
82238300   xdc_runtime_Memory_free__F
82238340   xdc_runtime_Registry_findById__F
82238380   xdc_runtime_Startup_exec__I
822383c0   xdc_runtime_System_abort__F
82238400   xdc_runtime_System_aprintf__E
82238440   xdc_runtime_System_printf__E
82238480   xdc_runtime_System_sprintf__E
822384c0   xdc_runtime_Text_ropeText__F
82238500   xdc_runtime_Text_visitRope__I
82238540   xdc_runtime_knl_GateThread_Handle__label__S
82238580   xdc_runtime_knl_GateThread_Instance_finalize__F
822385c0   xdc_runtime_knl_GateThread_Instance_init__F
82238600   xdc_runtime_knl_GateThread_Proxy_Object__create__S
82238640   MultiProc_self
82238660   __c6xabi_negll
82238680   __c6xabi_trunc
822386a0   __cxa_atexit
822386c0   __cxa_ia64_exit
822386e0   __xdc__init
82238700   _nop
822387a0   _register_lock
822387c0   _register_unlock
822387e0   ti_sysbios_family_c62_TaskSupport_glue
82238800   ti_sysbios_family_xxx_Hwi_switchToTaskStack
82238820   C$$EXIT
82238820   abort
82238840   atexit
82238860   __TI_decompress_none
82238880   __TI_decompress_rle24
822388a0   determineProcId
822388c0   edma3MemZero
822388e0   edma3ParamCpy
82238900   isGblConfigRequired
82238920   lisrEdma3CCErrHandler0
82238940   lisrEdma3ComplHandler0
82238960   lisrEdma3TC0ErrHandler0
82238980   lisrEdma3TC1ErrHandler0
822389a0   lisrEdma3TC2ErrHandler0
822389c0   lisrEdma3TC3ErrHandler0
822389e0   lisrEdma3TC4ErrHandler0
82238a00   lisrEdma3TC5ErrHandler0
82238a20   lisrEdma3TC6ErrHandler0
82238a40   lisrEdma3TC7ErrHandler0
82238a80   putc
82238aa0   putchar
82238ac0   ti_sdo_ipc_GateMP_RemoteCustom1Proxy_Object__delete__S
82238ae0   ti_sdo_ipc_GateMP_RemoteCustom1Proxy_Params__init__S
82238b00   ti_sdo_ipc_GateMP_RemoteCustom1Proxy_Proxy__abstract__S
82238b20   ti_sdo_ipc_GateMP_RemoteCustom1Proxy_Proxy__delegate__S
82238b40   ti_sdo_ipc_GateMP_RemoteCustom1Proxy_getReservedMask__E
82238b60   ti_sdo_ipc_GateMP_RemoteCustom1Proxy_sharedMemReq__E
82238b80   ti_sdo_ipc_GateMP_RemoteCustom2Proxy_Object__delete__S
82238ba0   ti_sdo_ipc_GateMP_RemoteCustom2Proxy_Params__init__S
82238bc0   ti_sdo_ipc_GateMP_RemoteCustom2Proxy_Proxy__abstract__S
82238be0   ti_sdo_ipc_GateMP_RemoteCustom2Proxy_Proxy__delegate__S
82238c00   ti_sdo_ipc_GateMP_RemoteCustom2Proxy_getReservedMask__E
82238c20   ti_sdo_ipc_GateMP_RemoteCustom2Proxy_sharedMemReq__E
82238c40   ti_sdo_ipc_GateMP_RemoteSystemProxy_Object__delete__S
82238c60   ti_sdo_ipc_GateMP_RemoteSystemProxy_Params__init__S
82238c80   ti_sdo_ipc_GateMP_RemoteSystemProxy_Proxy__abstract__S
82238ca0   ti_sdo_ipc_GateMP_RemoteSystemProxy_Proxy__delegate__S
82238cc0   ti_sdo_ipc_GateMP_RemoteSystemProxy_getReservedMask__E
82238ce0   ti_sdo_ipc_GateMP_RemoteSystemProxy_sharedMemReq__E
82238d00   ti_sdo_ipc_GateMP_attach__E
82238d20   ti_sdo_ipc_GateMP_getRegion0ReservedSize__E
82238d40   ti_sdo_ipc_GateMP_getSharedAddr__E
82238d60   ti_sdo_ipc_GateMP_getSharedAddr__F
82238d80   ti_sdo_ipc_GateMP_start__E
82238da0   ti_sdo_ipc_MessageQ_Module_startup__E
82238dc0   ti_sdo_ipc_MessageQ_SetupTransportProxy_attach__E
82238de0   ti_sdo_ipc_MessageQ_SetupTransportProxy_isRegistered__E
82238e00   ti_sdo_ipc_MessageQ_SetupTransportProxy_sharedMemReq__E
82238e20   ti_sdo_ipc_MessageQ_unregisterTransport__E
82238e40   ti_sdo_ipc_Notify_Module_GateProxy_enter__E
82238e60   ti_sdo_ipc_Notify_Module_GateProxy_leave__E
82238e80   ti_sdo_ipc_Notify_Module_startup__E
82238ea0   ti_sdo_ipc_Notify_SetupProxy_attach__E
82238ec0   ti_sdo_ipc_Notify_SetupProxy_numIntLines__E
82238ee0   ti_sdo_ipc_Notify_SetupProxy_sharedMemReq__E
82238f00   ti_sdo_ipc_Notify_exec__E
82238f20   ti_sdo_ipc_SharedRegion_attach__E
82238f40   ti_sdo_ipc_SharedRegion_clearReservedMemory__E
82238f60   ti_sdo_ipc_SharedRegion_reserveMemory__E
82238f80   ti_sdo_ipc_SharedRegion_start__E
82238fa0   ti_sdo_ipc_family_c647x_Interrupt_Module_startup__E
82238fc0   ti_sdo_ipc_family_c647x_Interrupt_intDisable__E
82238fe0   ti_sdo_ipc_family_c647x_Interrupt_intEnable__E
82239000   ti_sdo_ipc_family_c647x_NotifyCircSetup_numIntLines__E
82239020   ti_sdo_ipc_gates_GateHWSem_Module_startup__E
82239040   ti_sdo_ipc_gates_GateHWSem_getReservedMask__E
82239060   ti_sdo_ipc_gates_GateHWSem_query__E
82239080   ti_sdo_ipc_gates_GateHWSem_query__F
822390a0   ti_sdo_ipc_gates_GateHWSem_sharedMemReq__E
822390c0   ti_sdo_ipc_gates_GateMPSupportNull_Instance_init__F
822390e0   ti_sdo_ipc_gates_GateMPSupportNull_getReservedMask__E
82239100   ti_sdo_ipc_gates_GateMPSupportNull_query__E
82239120   ti_sdo_ipc_gates_GateMPSupportNull_query__F
82239140   ti_sdo_ipc_gates_GateMPSupportNull_sharedMemReq__E
82239160   ti_sdo_ipc_gates_GatePeterson_getReservedMask__E
82239180   ti_sdo_ipc_gates_GatePeterson_query__E
822391a0   ti_sdo_ipc_gates_GatePeterson_query__F
822391c0   ti_sdo_ipc_heaps_HeapBufMP_getStats__E
822391e0   ti_sdo_ipc_heaps_HeapBufMP_isBlocking__E
82239200   ti_sdo_ipc_heaps_HeapBufMP_isBlocking__F
82239220   ti_sdo_ipc_heaps_HeapMemMP_isBlocking__E
82239240   ti_sdo_ipc_heaps_HeapMemMP_isBlocking__F
82239260   ti_sdo_ipc_notifyDrivers_NotifyDriverCirc_InterruptProxy_intClear__E
82239280   ti_sdo_ipc_notifyDrivers_NotifyDriverCirc_InterruptProxy_intDisable__E
822392a0   ti_sdo_ipc_notifyDrivers_NotifyDriverCirc_InterruptProxy_intEnable__E
822392c0   ti_sdo_ipc_notifyDrivers_NotifyDriverCirc_InterruptProxy_intSend__E
822392e0   ti_sdo_ipc_notifyDrivers_NotifyDriverCirc_InterruptProxy_intUnregister__E
82239300   ti_sdo_ipc_notifyDrivers_NotifyDriverCirc_setNotifyHandle__E
82239320   ti_sdo_ipc_notifyDrivers_NotifyDriverCirc_sharedMemReq__E
82239340   ti_sdo_ipc_nsremote_NameServerRemoteNotify_cbFxn__I
82239360   ti_sdo_ipc_transports_TransportShmNotifySetup_isRegistered__E
82239380   ti_sdo_ipc_transports_TransportShmNotifySetup_sharedMemReq__E
822393a0   ti_sdo_ipc_transports_TransportShmNotify_control__E
822393c0   ti_sdo_ipc_transports_TransportShmNotify_getStatus__E
822393e0   ti_sdo_ipc_transports_TransportShmNotify_setErrFxn__E
82239400   ti_sdo_ipc_transports_TransportShmNotify_setErrFxn__F
82239420   ti_sdo_utils_List_Instance_init__F
82239440   ti_sdo_utils_MultiProc_getClusterId__E
82239460   ti_sdo_utils_MultiProc_getClusterId__F
82239480   ti_sdo_utils_NameServer_Module__startupDone__S
822394a0   ti_sdo_utils_NameServer_Module_startup__E
822394c0   ti_sdo_utils_NameServer_SetupProxy_attach__E
822394e0   ti_sdo_utils_NameServer_SetupProxy_sharedMemReq__E
82239500   ti_sysbios_BIOS_RtsGateProxy_enter__E
82239520   ti_sysbios_BIOS_RtsGateProxy_leave__E
82239540   ti_sysbios_BIOS_getThreadType__E
82239560   ti_sysbios_BIOS_setThreadType__E
82239580   ti_sysbios_family_c62_TaskSupport_Module__startupDone__S
822395a0   ti_sysbios_family_c62_TaskSupport_checkStack__E
822395c0   ti_sysbios_family_c62_TaskSupport_getStackAlignment__E
822395e0   ti_sysbios_family_c64p_EventCombiner_Module_startup__E
82239600   ti_sysbios_family_c64p_EventCombiner_disableEvent__E
82239620   ti_sysbios_family_c64p_EventCombiner_dispatch__E
82239640   ti_sysbios_family_c64p_EventCombiner_enableEvent__E
82239660   ti_sysbios_family_c64p_EventCombiner_unused__E
82239680   ti_sysbios_family_c64p_Exception_Module_startup__E
822396a0   ti_sysbios_family_c64p_Hwi_Module__startupDone__S
822396c0   ti_sysbios_family_c64p_Hwi_Module_startup__E
822396e0   ti_sysbios_family_c64p_Hwi_clearInterrupt__E
82239700   ti_sysbios_family_c64p_Hwi_disable__E
82239720   ti_sysbios_family_c64p_Hwi_getHandle__E
82239740   ti_sysbios_family_c64p_Hwi_restore__E
82239760   ti_sysbios_family_c64p_Hwi_startup__E
82239780   ti_sysbios_family_c64p_Hwi_switchFromBootStack__E
822397a0   ti_sysbios_family_c64p_Hwi_unPluggedInterrupt__I
822397c0   ti_sysbios_family_c64p_TimestampProvider_Module_startup__E
822397e0   ti_sysbios_family_c64p_TimestampProvider_Module_startup__F
82239800   ti_sysbios_family_c64p_TimestampProvider_get32__E
82239820   ti_sysbios_family_c64p_tci6488_TimerSupport_enable__E
82239840   ti_sysbios_family_c66_Cache_Module_startup__E
82239860   ti_sysbios_family_c66_Cache_inv__E
82239880   ti_sysbios_family_c66_Cache_wbInv__E
822398a0   ti_sysbios_family_c66_Cache_wb__E
822398c0   ti_sysbios_family_c66_tci66xx_CpIntc_Module_startup__E
822398e0   ti_sysbios_family_c66_tci66xx_CpIntc_dispatch__E
82239900   ti_sysbios_family_c66_tci66xx_CpIntc_enableAllHostInts__E
82239920   ti_sysbios_family_c66_tci66xx_CpIntc_enableHostInt__E
82239940   ti_sysbios_family_c66_tci66xx_CpIntc_enableHostInt__F
82239960   ti_sysbios_family_c66_tci66xx_CpIntc_getEventId__E
82239980   ti_sysbios_family_c66_tci66xx_CpIntc_getEventId__F
822399a0   ti_sysbios_family_c66_tci66xx_CpIntc_mapSysIntToHostInt__E
822399c0   ti_sysbios_family_c66_tci66xx_CpIntc_unused__E
822399e0   ti_sysbios_gates_GateAll_Instance_init__F
82239a00   ti_sysbios_gates_GateAll_query__E
82239a20   ti_sysbios_gates_GateAll_query__F
82239a40   ti_sysbios_gates_GateHwi_Instance_init__F
82239a60   ti_sysbios_gates_GateHwi_enter__E
82239a80   ti_sysbios_gates_GateHwi_leave__E
82239aa0   ti_sysbios_gates_GateHwi_query__E
82239ac0   ti_sysbios_gates_GateHwi_query__F
82239ae0   ti_sysbios_gates_GateMutexPri_query__E
82239ae0   ti_sysbios_xdcruntime_GateProcessSupport_query__F
82239ae0   ti_sysbios_xdcruntime_GateThreadSupport_query__F
82239b00   ti_sysbios_gates_GateMutexPri_query__F
82239b20   ti_sysbios_gates_GateMutex_query__E
82239b40   ti_sysbios_gates_GateMutex_query__F
82239b60   ti_sysbios_gates_GateSwi_Instance_init__F
82239b80   ti_sysbios_gates_GateSwi_query__E
82239ba0   ti_sysbios_gates_GateSwi_query__F
82239bc0   ti_sysbios_hal_Cache_CacheProxy_wait__E
82239bc0   ti_sysbios_hal_Cache_wait__E
82239be0   ti_sysbios_hal_Hwi_HwiProxy_Module__startupDone__S
82239c00   ti_sysbios_hal_Hwi_HwiProxy_clearInterrupt__E
82239c00   ti_sysbios_hal_Hwi_clearInterrupt__E
82239c20   ti_sysbios_hal_Hwi_HwiProxy_disableInterrupt__E
82239c20   ti_sysbios_hal_Hwi_disableInterrupt__E
82239c40   ti_sysbios_hal_Hwi_HwiProxy_enableInterrupt__E
82239c40   ti_sysbios_hal_Hwi_enableInterrupt__E
82239c60   ti_sysbios_hal_Hwi_HwiProxy_startup__E
82239c60   ti_sysbios_hal_Hwi_startup__E
82239c80   ti_sysbios_hal_Hwi_HwiProxy_switchFromBootStack__E
82239c80   ti_sysbios_hal_Hwi_switchFromBootStack__E
82239ca0   ti_sysbios_hal_Hwi_Module_startup__E
82239cc0   ti_sysbios_hal_Hwi_Module_startup__F
82239ce0   ti_sysbios_hal_Timer_Module__startupDone__S
82239d00   ti_sysbios_hal_Timer_Module_startup__E
82239d20   ti_sysbios_hal_Timer_Module_startup__F
82239d40   ti_sysbios_hal_Timer_TimerProxy_Module__startupDone__S
82239d60   ti_sysbios_hal_Timer_TimerProxy_getExpiredCounts__E
82239d80   ti_sysbios_hal_Timer_TimerProxy_getPeriod__E
82239da0   ti_sysbios_hal_Timer_TimerProxy_setNextTick__E
82239dc0   ti_sysbios_hal_Timer_TimerProxy_startup__E
82239dc0   ti_sysbios_hal_Timer_startup__E
82239de0   ti_sysbios_heaps_HeapMem_Module_GateProxy_enter__E
82239e00   ti_sysbios_heaps_HeapMem_Module_GateProxy_leave__E
82239e20   ti_sysbios_heaps_HeapMem_Module_GateProxy_query__E
82239e40   ti_sysbios_heaps_HeapMem_isBlocking__E
82239e80   ti_sysbios_knl_Clock_Module_startup__E
82239ea0   ti_sysbios_knl_Queue_Instance_init__F
82239ec0   ti_sysbios_knl_Queue_empty__E
82239ee0   ti_sysbios_knl_Swi_Module_startup__E
82239f00   ti_sysbios_knl_Swi_disable__E
82239f20   ti_sysbios_knl_Task_Module_startup__E
82239f40   ti_sysbios_knl_Task_SupportProxy_Module__startupDone__S
82239f60   ti_sysbios_knl_Task_SupportProxy_checkStack__E
82239f80   ti_sysbios_knl_Task_SupportProxy_getStackAlignment__E
82239fa0   ti_sysbios_knl_Task_SupportProxy_start__E
82239fc0   ti_sysbios_knl_Task_SupportProxy_swap__E
82239fe0   ti_sysbios_knl_Task_disable__E
8223a000   ti_sysbios_knl_Task_enable__E
8223a020   ti_sysbios_knl_Task_getPri__E
8223a040   ti_sysbios_knl_Task_self__E
8223a060   ti_sysbios_syncs_SyncSem_query__E
8223a080   ti_sysbios_syncs_SyncSem_query__F
8223a0a0   ti_sysbios_syncs_SyncSem_signal__E
8223a0c0   ti_sysbios_syncs_SyncSem_signal__F
8223a0e0   ti_sysbios_syncs_SyncSem_wait__E
8223a100   ti_sysbios_timers_timer64_Timer_Module__startupDone__S
8223a120   ti_sysbios_timers_timer64_Timer_Module_startup__E
8223a140   ti_sysbios_timers_timer64_Timer_TimerSupportProxy_enable__E
8223a160   ti_sysbios_timers_timer64_Timer_setNextTick__E
8223a180   ti_sysbios_xdcruntime_GateThreadSupport_enter__E
8223a1a0   ti_sysbios_xdcruntime_GateThreadSupport_leave__E
8223a1c0   ti_sysbios_xdcruntime_GateThreadSupport_query__E
8223a200   xdc_runtime_Error_check__E
8223a220   xdc_runtime_Error_init__E
8223a240   xdc_runtime_Error_print__E
8223a260   xdc_runtime_GateNull_enter__E
8223a280   xdc_runtime_GateNull_enter__F
8223a2a0   xdc_runtime_GateNull_leave__E
8223a2c0   xdc_runtime_GateNull_leave__F
8223a2e0   xdc_runtime_GateNull_query__E
8223a300   xdc_runtime_GateNull_query__F
8223a320   xdc_runtime_Gate_enterSystem__E
8223a340   xdc_runtime_Gate_enterSystem__F
8223a360   xdc_runtime_Gate_leaveSystem__E
8223a380   xdc_runtime_Memory_HeapProxy_alloc__E
8223a3a0   xdc_runtime_Memory_HeapProxy_free__E
8223a3c0   xdc_runtime_Memory_alloc__E
8223a3e0   xdc_runtime_Memory_calloc__E
8223a400   xdc_runtime_Memory_free__E
8223a420   xdc_runtime_Memory_getMaxDefaultTypeAlign__E
8223a440   xdc_runtime_Memory_getMaxDefaultTypeAlign__F
8223a460   xdc_runtime_Registry_findById__E
8223a480   xdc_runtime_Startup_Module__startupDone__S
8223a4a0   xdc_runtime_Startup_exec__E
8223a4c0   xdc_runtime_Startup_reset__I
8223a4e0   xdc_runtime_Startup_rtsDone__E
8223a500   xdc_runtime_Startup_rtsDone__F
8223a520   xdc_runtime_SysStd_abort__E
8223a540   xdc_runtime_SysStd_exit__E
8223a560   xdc_runtime_SysStd_exit__F
8223a580   xdc_runtime_SysStd_putch__E
8223a5a0   xdc_runtime_SysStd_putch__F
8223a5c0   xdc_runtime_SysStd_ready__E
8223a5e0   xdc_runtime_SysStd_ready__F
8223a600   xdc_runtime_System_Module_GateProxy_enter__E
8223a620   xdc_runtime_System_Module_GateProxy_leave__E
8223a640   xdc_runtime_System_Module_startup__E
8223a660   xdc_runtime_System_Module_startup__F
8223a680   xdc_runtime_System_SupportProxy_abort__E
8223a6a0   xdc_runtime_System_SupportProxy_exit__E
8223a6c0   xdc_runtime_System_SupportProxy_putch__E
8223a6e0   xdc_runtime_System_SupportProxy_ready__E
8223a700   xdc_runtime_System_abort__E
8223a720   xdc_runtime_System_atexit__E
8223a740   xdc_runtime_System_exit__E
8223a760   xdc_runtime_System_exit__F
8223a780   xdc_runtime_System_lastFxn__I
8223a7a0   xdc_runtime_System_vsprintf__E
8223a7c0   xdc_runtime_System_sprintf_va__F
8223a7c0   xdc_runtime_System_vsprintf__F
8223a7e0   xdc_runtime_Text_cordText__E
8223a800   xdc_runtime_Text_putLab__E
8223a820   xdc_runtime_Text_putSite__E
8223a840   xdc_runtime_Text_ropeText__E
8223a860   xdc_runtime_Timestamp_SupportProxy_get32__E
8223a860   xdc_runtime_Timestamp_get32__F
8223a880   xdc_runtime_Timestamp_get32__E
8223a8a0   xdc_runtime_knl_GateThread_Module__startupDone__S
8223a8c0   xdc_runtime_knl_GateThread_Proxy_Object__delete__S
8223a8e0   xdc_runtime_knl_GateThread_Proxy_enter__E
8223a900   xdc_runtime_knl_GateThread_Proxy_leave__E
8223a920   xdc_runtime_knl_GateThread_Proxy_query__E
8223a920   xdc_runtime_knl_GateThread_query__F
8223a940   xdc_runtime_knl_GateThread_enter__E
8223a960   xdc_runtime_knl_GateThread_enter__F
8223a980   xdc_runtime_knl_GateThread_leave__E
8223a9a0   xdc_runtime_knl_GateThread_leave__F
8223a9c0   xdc_runtime_knl_GateThread_query__E
8223ac00   ti_sysbios_family_c64p_Hwi0
8223ac20   ti_sysbios_family_c64p_Hwi1
8223ac40   ti_sysbios_family_c64p_Hwi2
8223ac60   ti_sysbios_family_c64p_Hwi3
8223ac80   ti_sysbios_family_c64p_Hwi4
8223aca0   ti_sysbios_family_c64p_Hwi5
8223acc0   ti_sysbios_family_c64p_Hwi6
8223ace0   ti_sysbios_family_c64p_Hwi7
8223ad00   ti_sysbios_family_c64p_Hwi8
8223ad20   ti_sysbios_family_c64p_Hwi9
8223ad40   ti_sysbios_family_c64p_Hwi10
8223ad60   ti_sysbios_family_c64p_Hwi11
8223ad80   ti_sysbios_family_c64p_Hwi12
8223ada0   ti_sysbios_family_c64p_Hwi13
8223adc0   ti_sysbios_family_c64p_Hwi14
8223ade0   ti_sysbios_family_c64p_Hwi15
ffffffff   __TI_pprof_out_hndl
ffffffff   __TI_prof_data_size
ffffffff   __TI_prof_data_start
ffffffff   __binit__
ffffffff   __c_args__
ffffffff   binit

[1587 symbols]
